(dp0
I0
(dp1
S'i'
p2
I0
sS'vtune'
p3
(lp4
F24.450000784
aF24.450000784
asS'time'
p5
(lp6
F0.0006
aF0.002
aF0.0034
aF0.0048
aF0.0062
aF0.0076
aF0.009
aF0.0104
aF0.0118
aF0.0131
aF0.0145
aF0.0159
aF0.0173
aF0.0187
aF0.0201
aF0.0215
aF0.0229
aF0.0243
aF0.0257
aF0.027
aF0.0284
aF0.0298
aF0.0312
aF0.0326
aF0.034
aF0.0354
aF0.0368
aF0.0382
aF0.0395
aF0.0409
aF0.0423
aF0.0437
aF0.0451
aF0.0465
aF0.0479
aF0.0493
aF0.0507
aF0.052
aF0.0534
aF0.0548
aF0.0562
aF0.0576
aF0.059
aF0.0604
aF0.0618
aF0.0632
aF0.0645
aF0.0659
aF0.0673
aF0.0687
aF0.0701
aF0.0715
aF0.0729
aF0.0743
aF0.0757
aF0.0771
aF0.0784
aF0.0798
aF0.0812
aF0.0826
aF0.084
aF0.0854
aF0.0868
aF0.0882
aF0.0896
aF0.0909
aF0.0923
aF0.0937
aF0.0951
aF0.0965
aF0.0979
aF0.0993
aF0.1007
aF0.102
aF0.1034
aF0.1048
aF0.1062
aF0.1076
aF0.109
aF0.1104
aF0.1118
aF0.1132
aF0.1146
aF0.1159
aF0.1173
aF0.1187
aF0.1201
aF0.1215
aF0.1229
aF0.1243
aF0.1257
aF0.12710001
aF0.1284
aF0.12980001
aF0.1312
aF0.13259999
aF0.134
aF0.1354
aF0.13680001
aF0.1382
aF0.13959999
aF0.141
aF0.14229999
aF0.1437
aF0.1451
aF0.14650001
aF0.1479
aF0.14929999
aF0.1507
aF0.1521
aF0.15350001
aF0.1548
aF0.15620001
aF0.1576
aF0.15899999
aF0.1604
aF0.1618
aF0.16320001
aF0.1646
aF0.16599999
aF0.1673
aF0.16869999
aF0.1701
aF0.1715
aF0.17290001
aF0.1743
aF0.17569999
aF0.1771
aF0.1785
aF0.1798
aF0.1812
aF0.18260001
aF0.184
aF0.18539999
aF0.1868
aF0.1882
aF0.18960001
aF0.191
aF0.19230001
aF0.1937
aF0.19509999
aF0.1965
aF0.1979
aF0.19930001
aF0.2007
aF0.20209999
aF0.2035
aF0.2049
aF0.2062
aF0.2076
aF0.20900001
aF0.2104
aF0.21179999
aF0.2132
aF0.2146
aF0.21600001
aF0.2173
aF0.21870001
aF0.2201
aF0.22149999
aF0.2229
aF0.2243
aF0.22570001
aF0.2271
aF0.22849999
aF0.2299
aF0.23119999
aF0.2326
aF0.234
aF0.23540001
aF0.2368
aF0.23819999
aF0.2396
aF0.241
aF0.24240001
aF0.2437
aF0.24510001
aF0.2465
aF0.24789999
aF0.2493
aF0.2507
aF0.25209999
aF0.25350001
aF0.25490001
aF0.2563
aF0.25760001
aF0.259
aF0.2604
aF0.26179999
aF0.26320001
aF0.26460001
aF0.266
aF0.2674
aF0.2687
aF0.2701
aF0.27149999
aF0.27289999
aF0.27430001
aF0.2757
aF0.2771
aF0.27849999
aF0.27990001
aF0.28119999
aF0.28259999
aF0.28400001
aF0.2854
aF0.2868
aF0.28819999
aF0.28960001
aF0.29100001
aF0.2924
aF0.2938
aF0.2951
aF0.2965
aF0.29789999
aF0.29929999
aF0.30070001
aF0.3021
aF0.3035
aF0.30489999
aF0.30630001
aF0.30759999
aF0.30899999
aF0.31040001
aF0.3118
aF0.3132
aF0.31459999
aF0.31600001
aF0.31740001
aF0.3188
aF0.32010001
aF0.3215
aF0.3229
aF0.32429999
aF0.32570001
aF0.32710001
aF0.3285
aF0.3299
aF0.33129999
aF0.3326
aF0.33399999
aF0.33539999
aF0.33680001
aF0.3382
aF0.3396
aF0.34099999
aF0.34240001
aF0.34380001
aF0.3452
aF0.34650001
aF0.3479
aF0.3493
aF0.35069999
aF0.35210001
aF0.35350001
aF0.3549
aF0.3563
aF0.35769999
aF0.359
aF0.36039999
aF0.36179999
aF0.36320001
aF0.3646
aF0.366
aF0.36739999
aF0.36880001
aF0.37020001
aF0.37149999
aF0.37290001
aF0.3743
aF0.3757
aF0.37709999
aF0.37850001
aF0.37990001
aF0.3813
aF0.3827
aF0.384
aF0.3854
aF0.38679999
aF0.38820001
aF0.38960001
aF0.391
aF0.3924
aF0.39379999
aF0.39520001
aF0.39660001
aF0.39789999
aF0.39930001
aF0.4007
aF0.4021
aF0.40349999
aF0.40490001
aF0.40630001
aF0.4077
aF0.4091
aF0.4104
aF0.4118
aF0.41319999
aF0.41460001
aF0.41600001
aF0.4174
aF0.4188
aF0.42019999
aF0.42160001
aF0.42289999
aF0.42429999
aF0.42570001
aF0.4271
aF0.4285
aF0.42989999
aF0.43130001
aF0.43270001
aF0.4341
aF0.43540001
aF0.4368
aF0.4382
aF0.43959999
aF0.44100001
aF0.44240001
aF0.4438
aF0.4452
aF0.44659999
aF0.44800001
aF0.44929999
aF0.45070001
aF0.45210001
aF0.4535
aF0.4549
aF0.45629999
aF0.45770001
aF0.45910001
aF0.4605
aF0.46180001
aF0.4632
aF0.4646
aF0.46599999
aF0.46740001
aF0.46880001
aF0.4702
aF0.4716
aF0.47299999
aF0.4743
aF0.47569999
aF0.47710001
aF0.47850001
aF0.4799
aF0.4813
aF0.48269999
aF0.48410001
aF0.48550001
aF0.48679999
aF0.48820001
aF0.4896
aF0.491
aF0.49239999
aF0.49380001
aF0.49520001
aF0.4966
aF0.498
aF0.4993
aF0.5007
aF0.50209999
aF0.50349998
aF0.50489998
aF0.50629997
aF0.50770003
aF0.50910002
aF0.51050001
aF0.51179999
aF0.51319999
aF0.51459998
aF0.51599997
aF0.51740003
aF0.51880002
aF0.52020001
aF0.52160001
aF0.523
aF0.52429998
aF0.52569997
aF0.52710003
aF0.52850002
aF0.52990001
aF0.53130001
aF0.5327
aF0.5341
aF0.53549999
aF0.53689998
aF0.53820002
aF0.53960001
aF0.54100001
aF0.5424
aF0.5438
aF0.54519999
aF0.54659998
aF0.54799998
aF0.54939997
aF0.55070001
aF0.5521
aF0.5535
aF0.55489999
aF0.55629998
aF0.55769998
aF0.55909997
aF0.56050003
aF0.56190002
aF0.5632
aF0.56459999
aF0.56599998
aF0.56739998
aF0.56879997
aF0.57020003
aF0.57160002
aF0.57300001
aF0.57440001
aF0.57569999
aF0.57709998
aF0.57849997
aF0.57990003
aF0.58130002
aF0.58270001
aF0.58410001
aF0.5855
aF0.5869
aF0.58829999
aF0.58960003
aF0.59100002
aF0.59240001
aF0.59380001
aF0.5952
aF0.5966
aF0.59799999
aF0.59939998
aF0.60079998
aF0.60210001
aF0.60350001
aF0.6049
aF0.6063
aF0.60769999
aF0.60909998
aF0.61049998
aF0.61189997
aF0.61330003
aF0.6146
aF0.616
aF0.61739999
aF0.61879998
aF0.62019998
aF0.62159997
aF0.62300003
aF0.62440002
aF0.62580001
aF0.62720001
aF0.62849998
aF0.62989998
aF0.63129997
aF0.63270003
aF0.63410002
aF0.63550001
aF0.63690001
aF0.6383
aF0.63959998
aF0.64099997
aF0.64240003
aF0.64380002
aF0.64520001
aF0.64660001
aF0.648
aF0.6494
aF0.65079999
aF0.65219998
aF0.65350002
aF0.65490001
aF0.65630001
aF0.6577
aF0.6591
aF0.66049999
aF0.66189998
aF0.66329998
aF0.66469997
aF0.66600001
aF0.6674
aF0.6688
aF0.67019999
aF0.67159998
aF0.67299998
aF0.67439997
aF0.67580003
aF0.67720002
aF0.6785
aF0.67989999
aF0.68129998
aF0.68269998
aF0.68409997
aF0.68550003
aF0.68690002
aF0.68830001
aF0.68970001
aF0.69099998
aF0.69239998
aF0.69379997
aF0.69520003
aF0.69660002
aF0.69800001
aF0.69940001
aF0.7008
aF0.7022
aF0.70359999
aF0.70490003
aF0.70630002
aF0.70770001
aF0.70910001
aF0.7105
aF0.7119
aF0.71329999
aF0.71469998
aF0.71609998
aF0.71740001
aF0.71880001
aF0.7202
aF0.7216
aF0.72299999
aF0.72439998
aF0.72579998
aF0.72719997
aF0.72860003
aF0.7299
aF0.7313
aF0.73269999
aF0.73409998
aF0.73549998
aF0.73689997
aF0.73830003
aF0.73970002
aF0.74110001
aF0.74239999
aF0.74379998
aF0.74519998
aF0.74659997
aF0.74800003
aF0.74940002
aF0.75080001
aF0.75220001
aF0.7536
aF0.75489998
aF0.75629997
aF0.75770003
aF0.75910002
aF0.76050001
aF0.76190001
aF0.7633
aF0.7647
aF0.76609999
aF0.76749998
aF0.76880002
aF0.77020001
aF0.77160001
aF0.773
aF0.7744
aF0.77579999
aF0.77719998
aF0.77859998
aF0.77999997
aF0.78130001
aF0.7827
aF0.7841
aF0.78549999
aF0.78689998
aF0.78829998
aF0.78969997
aF0.79110003
aF0.79250002
aF0.7938
aF0.79519999
aF0.79659998
aF0.79799998
aF0.79939997
aF0.80080003
aF0.80220002
aF0.80360001
aF0.80500001
aF0.8064
aF0.80769998
aF0.80909997
aF0.81050003
aF0.81190002
aF0.81330001
aF0.81470001
aF0.8161
aF0.8175
aF0.81889999
aF0.82020003
aF0.82160002
aF0.82300001
aF0.82440001
aF0.8258
aF0.8272
aF0.82859999
aF0.82999998
aF0.83130002
aF0.83270001
aF0.83410001
aF0.8355
aF0.8369
aF0.83829999
aF0.83969998
aF0.84109998
aF0.84249997
aF0.84390002
aF0.8452
aF0.8466
aF0.84799999
aF0.84939998
aF0.85079998
aF0.85219997
aF0.85360003
aF0.85500002
aF0.85640001
aF0.85769999
aF0.85909998
aF0.86049998
aF0.86189997
aF0.86330003
aF0.86470002
aF0.86610001
aF0.86750001
aF0.8689
aF0.87019998
aF0.87159997
aF0.87300003
aF0.87440002
aF0.87580001
aF0.87720001
aF0.8786
aF0.88
aF0.88139999
aF0.88270003
aF0.88410002
aF0.88550001
aF0.88690001
aF0.8883
aF0.8897
aF0.89109999
aF0.89249998
aF0.89389998
aF0.89529997
aF0.89660001
aF0.898
aF0.8994
aF0.90079999
aF0.90219998
aF0.90359998
aF0.90499997
aF0.90640002
aF0.90780002
aF0.9091
aF0.91049999
aF0.91189998
aF0.91329998
aF0.91469997
aF0.91610003
aF0.91750002
aF0.91890001
aF0.92030001
aF0.92159998
aF0.92299998
aF0.92439997
aF0.92580003
aF0.92720002
aF0.92860001
aF0.93000001
aF0.9314
aF0.93279999
aF0.93409997
aF0.93550003
aF0.93690002
aF0.93830001
aF0.93970001
aF0.9411
aF0.9425
aF0.94389999
aF0.94529998
aF0.94669998
aF0.94800001
aF0.94940001
aF0.9508
aF0.9522
aF0.95359999
aF0.95499998
aF0.95639998
aF0.95779997
aF0.95920002
aF0.9605
aF0.9619
aF0.96329999
aF0.96469998
aF0.96609998
aF0.96749997
aF0.96890002
aF0.97030002
aF0.97170001
aF0.97299999
aF0.97439998
aF0.97579998
aF0.97719997
aF0.97860003
aF0.98000002
aF0.98140001
aF0.98280001
aF0.9842
aF0.98559999
aF0.98689997
aF0.98830003
aF0.98970002
aF0.99110001
aF0.99250001
aF0.9939
aF0.99529999
aF0.99669999
aF0.99800003
aF0.99940002
aF1.0008
aF1.0022
aF1.0036
aF1.005
aF1.0064
aF1.0078
aF1.0092
aF1.0105
aF1.0118999
aF1.0132999
aF1.0147001
aF1.0161
aF1.0175
aF1.0189
aF1.0203
aF1.0217
aF1.023
aF1.0244
aF1.0258
aF1.0272
aF1.0286
aF1.03
aF1.0314
aF1.0328
aF1.0342
aF1.0355999
aF1.0369999
aF1.0383
aF1.0397
aF1.0411
aF1.0425
aF1.0439
aF1.0453
aF1.0467
aF1.0481
aF1.0494
aF1.0508
aF1.0522
aF1.0536
aF1.0549999
aF1.0563999
aF1.0578001
aF1.0592
aF1.0606
aF1.0619
aF1.0633
aF1.0647
aF1.0661
aF1.0675
aF1.0689
aF1.0703
aF1.0717
aF1.0731
aF1.0743999
aF1.0757999
aF1.0772001
aF1.0786
aF1.08
aF1.0814
aF1.0828
aF1.0842
aF1.0856
aF1.087
aF1.0883
aF1.0897
aF1.0911
aF1.0925
aF1.0939
aF1.0953
aF1.0967
aF1.0980999
aF1.0994999
aF1.1008
aF1.1022
aF1.1036
aF1.105
aF1.1064
aF1.1078
aF1.1092
aF1.1106
aF1.112
aF1.1133
aF1.1147
aF1.1161
aF1.1174999
aF1.1188999
aF1.1203001
aF1.1217
aF1.1231
aF1.1245
aF1.1258
aF1.1272
aF1.1286
aF1.13
aF1.1314
aF1.1328
aF1.1342
aF1.1356
aF1.137
aF1.1382999
aF1.1397001
aF1.1411
aF1.1425
aF1.1439
aF1.1453
aF1.1467
aF1.1481
aF1.1495
aF1.1509
aF1.1522
aF1.1536
aF1.155
aF1.1564
aF1.1578
aF1.1592
aF1.1605999
aF1.1619999
aF1.1634001
aF1.1647
aF1.1661
aF1.1675
aF1.1689
aF1.1703
aF1.1717
aF1.1731
aF1.1745
aF1.1759
aF1.1772
aF1.1786
aF1.1799999
aF1.1813999
aF1.1828001
aF1.1842
aF1.1856
aF1.187
aF1.1884
aF1.1898
aF1.1911
aF1.1925
aF1.1939
aF1.1953
aF1.1967
aF1.1981
aF1.1995
aF1.2009
aF1.2023
aF1.2036
aF1.205
aF1.2064
aF1.2078
aF1.2092
aF1.2106
aF1.212
aF1.2134
aF1.2148
aF1.2161
aF1.2175
aF1.2189
aF1.2203
aF1.2217
aF1.2230999
aF1.2244999
aF1.2259001
aF1.2273
aF1.2286
aF1.23
aF1.2314
aF1.2328
aF1.2342
aF1.2356
aF1.237
aF1.2384
aF1.2398
aF1.2411
aF1.2424999
aF1.2438999
aF1.2453001
aF1.2467
aF1.2481
aF1.2495
aF1.2509
aF1.2523
aF1.2536
aF1.255
aF1.2564
aF1.2578
aF1.2592
aF1.2606
aF1.262
aF1.2634
aF1.2648
aF1.2661999
aF1.2675
aF1.2689
aF1.2703
aF1.2717
aF1.2731
aF1.2745
aF1.2759
aF1.2773
aF1.2787
aF1.28
aF1.2814
aF1.2828
aF1.2842
aF1.2855999
aF1.2869999
aF1.2884001
aF1.2898
aF1.2912
aF1.2925
aF1.2939
aF1.2953
aF1.2967
aF1.2981
aF1.2995
asS'beam'
p7
(lp8
F-0.0289
aF-0.0283
aF-0.0291
aF-0.0305
aF-0.0305
aF-0.0299
aF-0.029
aF-0.0299
aF-0.0288
aF-0.0299
aF-0.0291
aF-0.0303
aF-0.029
aF-0.0299
aF-0.0279
aF-0.0296
aF-0.0283
aF-0.0294
aF-0.0298
aF-0.029
aF-0.029
aF-0.0296
aF-0.0297
aF-0.0299
aF-0.0289
aF-0.0292
aF-0.0291
aF1.047
aF1.13
aF1.13
aF1.131
aF1.13
aF1.131
aF1.13
aF1.129
aF1.129
aF1.13
aF1.13
aF1.13
aF1.13
aF1.131
aF1.129
aF1.13
aF1.13
aF1.13
aF1.13
aF1.13
aF1.13
aF1.13
aF1.131
aF1.13
aF1.131
aF1.131
aF1.129
aF1.13
aF1.129
aF1.131
aF1.129
aF1.128
aF1.13
aF1.131
aF1.13
aF1.131
aF1.13
aF1.129
aF1.13
aF1.131
aF1.13
aF1.131
aF1.13
aF1.13
aF1.129
aF1.129
aF1.129
aF1.131
aF1.129
aF1.132
aF1.129
aF1.13
aF1.129
aF1.131
aF1.13
aF1.131
aF1.129
aF1.128
aF1.129
aF1.131
aF1.13
aF1.129
aF1.129
aF1.129
aF1.128
aF1.13
aF1.128
aF1.128
aF1.13
aF1.129
aF1.128
aF1.13
aF1.13
aF1.129
aF1.129
aF1.129
aF1.129
aF1.129
aF1.129
aF1.13
aF1.13
aF1.129
aF1.129
aF1.129
aF1.129
aF1.129
aF1.129
aF1.129
aF1.13
aF1.13
aF1.129
aF1.128
aF1.129
aF1.129
aF1.129
aF1.13
aF1.13
aF1.13
aF1.13
aF1.129
aF1.129
aF1.129
aF1.129
aF1.129
aF1.129
aF1.129
aF1.13
aF1.13
aF1.129
aF1.129
aF1.129
aF1.129
aF1.129
aF1.13
aF1.129
aF1.128
aF1.129
aF1.128
aF1.13
aF1.129
aF1.13
aF1.13
aF1.129
aF1.129
aF1.13
aF1.129
aF1.129
aF1.129
aF1.129
aF1.129
aF1.13
aF1.131
aF1.129
aF1.13
aF1.13
aF1.13
aF1.129
aF1.129
aF1.13
aF1.129
aF1.127
aF1.129
aF1.13
aF1.129
aF1.129
aF1.129
aF1.128
aF1.129
aF1.129
aF1.13
aF1.13
aF1.129
aF1.129
aF1.129
aF1.129
aF1.13
aF1.129
aF1.13
aF1.129
aF1.129
aF1.13
aF1.13
aF1.129
aF1.129
aF1.128
aF1.129
aF1.129
aF1.13
aF1.129
aF1.13
aF1.129
aF1.13
aF1.129
aF1.13
aF1.13
aF1.129
aF1.128
aF1.13
aF1.13
aF1.129
aF1.129
aF1.129
aF1.129
aF1.13
aF1.129
aF1.128
aF1.129
aF1.129
aF1.13
aF1.13
aF1.13
aF1.13
aF1.13
aF1.13
aF1.13
aF1.13
aF1.13
aF1.13
aF1.128
aF1.129
aF1.129
aF1.129
aF1.129
aF1.131
aF1.13
aF1.13
aF1.13
aF1.129
aF1.129
aF1.129
aF1.128
aF1.129
aF1.129
aF1.129
aF1.129
aF1.131
aF1.13
aF1.129
aF1.129
aF1.13
aF1.129
aF1.13
aF1.13
aF1.13
aF1.128
aF1.131
aF1.131
aF1.129
aF1.13
aF1.13
aF1.129
aF1.129
aF1.13
aF1.13
aF1.129
aF1.129
aF1.129
aF1.13
aF1.13
aF1.13
aF1.131
aF1.13
aF1.13
aF1.129
aF1.13
aF1.13
aF1.129
aF1.128
aF1.128
aF1.128
aF1.129
aF1.13
aF1.13
aF1.13
aF1.129
aF1.129
aF1.129
aF1.129
aF1.129
aF1.128
aF1.128
aF1.128
aF1.127
aF1.128
aF1.129
aF1.129
aF1.126
aF1.128
aF1.128
aF1.128
aF1.128
aF1.127
aF1.127
aF1.127
aF1.127
aF1.128
aF1.128
aF1.128
aF1.127
aF1.128
aF1.128
aF1.129
aF1.126
aF1.127
aF1.126
aF1.127
aF1.128
aF1.127
aF1.127
aF1.127
aF1.127
aF1.127
aF1.127
aF1.126
aF1.126
aF1.127
aF1.127
aF1.127
aF1.127
aF1.128
aF1.127
aF1.128
aF1.126
aF1.127
aF1.127
aF1.127
aF1.125
aF1.125
aF1.125
aF1.126
aF1.126
aF1.127
aF1.127
aF1.126
aF1.125
aF1.126
aF1.127
aF1.126
aF1.125
aF1.125
aF1.125
aF1.124
aF1.125
aF1.127
aF1.126
aF1.126
aF1.125
aF1.126
aF1.126
aF1.125
aF1.125
aF1.125
aF1.125
aF1.125
aF1.126
aF1.125
aF1.125
aF1.125
aF1.126
aF1.125
aF1.125
aF1.126
aF1.124
aF1.125
aF1.124
aF1.124
aF1.125
aF1.125
aF1.125
aF1.125
aF1.126
aF1.124
aF1.125
aF1.124
aF1.126
aF1.123
aF1.123
aF1.125
aF1.124
aF1.125
aF1.125
aF1.124
aF1.124
aF1.123
aF1.125
aF1.125
aF1.124
aF1.122
aF1.123
aF1.123
aF1.123
aF1.125
aF1.122
aF1.123
aF1.122
aF1.124
aF1.122
aF1.124
aF1.122
aF1.121
aF1.122
aF1.122
aF1.122
aF1.123
aF1.122
aF1.122
aF1.121
aF1.122
aF1.121
aF1.122
aF1.12
aF1.121
aF1.121
aF1.121
aF1.121
aF1.121
aF1.12
aF1.119
aF1.119
aF1.117
aF1.119
aF1.117
aF1.117
aF1.117
aF1.115
aF1.114
aF1.114
aF1.114
aF1.113
aF1.111
aF1.109
aF1.106
aF1.101
aF1.097
aF1.089
aF1.076
aF1.052
aF1.027
aF0.9938
aF0.9225
aF0.8044
aF0.6743
aF0.5437
aF0.3861
aF0.2604
aF0.207
aF0.1848
aF0.1586
aF0.1356
aF0.1224
aF0.1088
aF0.0828
aF0.0606
aF0.0504
aF0.0451
aF0.0409
aF0.0384
aF0.0349
aF0.0325
aF0.0301
aF0.0279
aF0.0262
aF0.0243
aF0.024
aF0.022
aF0.0197
aF0.0183
aF0.0182
aF0.0186
aF0.0179
aF0.0167
aF0.0172
aF0.017
aF0.0157
aF0.0158
aF0.0174
aF0.0169
aF0.0173
aF0.016
aF0.0159
aF0.0173
aF0.0169
aF0.017
aF0.0158
aF0.015
aF0.0157
aF0.0166
aF0.0161
aF0.0171
aF0.0161
aF0.0165
aF0.016
aF0.0171
aF0.0155
aF0.0164
aF0.0153
aF0.0149
aF0.0157
aF0.0165
aF0.0162
aF0.0165
aF0.0149
aF0.0156
aF0.0169
aF0.0168
aF0.0159
aF0.0164
aF0.0162
aF0.0162
aF0.017
aF0.0168
aF0.0149
aF0.0152
aF0.0162
aF0.015
aF0.016
aF0.0165
aF0.0168
aF0.0148
aF0.0156
aF0.0144
aF0.0158
aF0.0161
aF0.0161
aF0.0165
aF0.0173
aF0.0155
aF0.0166
aF0.0156
aF0.0172
aF0.0169
aF0.014
aF0.0162
aF0.016
aF0.0165
aF0.0167
aF0.0167
aF0.016
aF0.0152
aF0.0158
aF0.016
aF0.0153
aF0.0155
aF0.0162
aF0.0159
aF0.0156
aF0.0161
aF0.0152
aF0.0159
aF0.0167
aF0.0149
aF0.0152
aF0.0168
aF0.0172
aF0.0161
aF0.0149
aF0.0149
aF0.0161
aF0.0169
aF0.0169
aF0.0162
aF0.016
aF0.016
aF0.0174
aF0.0162
aF0.0173
aF0.0165
aF0.0143
aF0.0163
aF-0.0254
aF-0.0291
aF-0.028
aF-0.0287
aF-0.0284
aF-0.0296
aF-0.028
aF-0.028
aF-0.0279
aF-0.029
aF-0.0291
aF-0.0302
aF-0.0291
aF-0.0294
aF-0.0277
aF-0.0278
aF-0.0298
aF-0.03
aF-0.0292
aF-0.0279
aF-0.0281
aF-0.0295
aF-0.0287
aF-0.0299
aF-0.0291
aF-0.0288
aF-0.029
aF-0.0292
aF-0.0283
aF-0.0298
aF-0.0293
aF-0.0282
aF-0.0288
aF-0.0294
aF-0.0288
aF-0.0286
aF-0.029
aF-0.0279
aF-0.0278
aF-0.0287
aF-0.0279
aF-0.0293
aF-0.0282
aF-0.029
aF-0.0279
aF-0.029
aF-0.0297
aF-0.0298
aF-0.03
aF-0.0285
aF-0.0278
aF-0.0293
aF-0.0287
aF-0.0291
aF-0.0284
aF-0.0286
aF-0.0293
aF-0.0289
aF-0.0289
aF-0.0298
aF-0.0286
aF-0.0282
aF-0.0272
aF-0.0286
aF-0.0293
aF-0.0298
aF-0.0283
aF-0.0289
aF-0.0284
aF-0.0293
aF-0.0293
aF-0.0295
aF-0.03
aF-0.0291
aF-0.0278
aF-0.0286
aF-0.0289
aF-0.0291
aF-0.0289
aF-0.0289
aF-0.0296
aF-0.0296
aF-0.0279
aF-0.0302
aF-0.0285
aF-0.0285
aF-0.0274
aF-0.0291
aF-0.0293
aF-0.0289
aF-0.0281
aF-0.0291
aF-0.0278
aF-0.0299
aF-0.03
aF-0.0292
aF-0.0292
aF-0.0293
aF-0.0288
aF-0.0284
aF-0.0283
aF-0.0291
aF-0.029
aF-0.0288
aF-0.0284
aF-0.0293
aF-0.029
aF-0.0293
aF-0.0289
aF-0.0291
aF-0.0288
aF-0.0282
aF-0.0285
aF-0.0286
aF-0.028
aF-0.028
aF-0.0295
aF-0.0287
aF-0.0301
aF-0.0296
aF-0.029
aF-0.0288
aF-0.0286
aF-0.0287
aF-0.0298
aF-0.0287
aF-0.0282
aF-0.0291
aF-0.0287
aF-0.0282
aF-0.0295
aF-0.0296
aF-0.0289
aF-0.0286
aF-0.0282
aF-0.0286
aF-0.0288
aF-0.0303
aF-0.0289
aF-0.0279
aF-0.0287
aF-0.03
aF-0.028
aF-0.0292
aF-0.0293
aF-0.0283
aF-0.0286
aF-0.0276
aF-0.0292
aF-0.0307
aF-0.0292
aF-0.0282
aF-0.0286
aF-0.0292
aF-0.0284
aF-0.0292
aF-0.0292
aF-0.0289
aF-0.0289
aF-0.0286
aF-0.0291
aF-0.0284
aF-0.0277
aF-0.0291
aF-0.0293
aF-0.0298
aF-0.0283
aF-0.0303
aF-0.029
aF-0.0288
aF-0.0274
aF-0.0278
aF-0.029
aF-0.0303
aF-0.0287
aF-0.0289
aF-0.0284
aF-0.0288
aF-0.0293
aF-0.0297
aF-0.0294
aF-0.0296
aF-0.0296
aF-0.0282
aF-0.0292
aF-0.03
aF-0.029
aF-0.0282
aF-0.0278
aF-0.0296
aF-0.029
aF-0.0301
aF-0.0296
aF-0.0289
aF-0.0296
aF-0.0273
aF-0.0291
aF-0.0296
aF-0.029
aF-0.029
aF-0.0284
aF-0.0276
aF-0.0294
aF-0.0298
aF-0.0289
aF-0.0292
aF-0.0291
aF-0.028
aF-0.0292
aF-0.0293
aF-0.0287
aF-0.0289
aF-0.0277
aF-0.0294
aF-0.0289
aF-0.0302
aF-0.0302
aF-0.0297
aF-0.0277
aF-0.0281
aF-0.0288
aF-0.0287
aF-0.0295
aF-0.0284
aF-0.0281
aF-0.0289
aF-0.0282
aF-0.0311
aF-0.029
aF-0.029
aF-0.0281
aF-0.0286
aF-0.0303
aF-0.0302
aF-0.0274
aF-0.0281
aF-0.0287
aF-0.029
aF-0.0291
aF-0.0291
aF-0.03
aF-0.0286
aF-0.029
aF-0.0281
aF-0.0279
aF-0.0289
aF-0.0291
aF-0.0289
aF-0.0281
aF-0.0291
aF-0.0299
aF-0.0296
aF-0.0294
aF-0.0289
aF-0.029
aF-0.029
aF-0.0294
aF-0.0289
aF-0.0293
aF-0.0281
aF-0.0292
aF-0.0288
aF-0.0297
aF-0.0298
aF-0.0303
aF-0.0301
aF-0.0286
aF-0.0286
aF-0.0287
aF-0.0293
aF-0.0287
aF-0.0288
aF-0.0286
aF-0.0293
aF-0.0294
aF-0.0292
aF-0.0288
aF-0.0291
aF-0.0274
aF-0.0282
aF-0.0287
aF-0.0295
aF-0.0296
aF-0.0275
aF-0.0295
aF-0.0293
aF-0.0288
aF-0.0294
aF-0.0293
aF-0.0287
aF-0.0281
aF-0.0287
aF-0.0296
aF-0.0293
aF-0.0286
aF-0.0286
aF-0.028
aF-0.0294
aF-0.0302
aF-0.0303
aF-0.03
aF-0.0279
aF-0.0296
aF-0.0291
aF-0.029
aF-0.0297
aF-0.0301
aF-0.0287
aF-0.0284
aF-0.0292
aF-0.0291
aF-0.0292
aF-0.0293
aF-0.0284
aF-0.0286
aF-0.028
aF-0.0292
aF-0.0295
aF-0.0282
aF-0.0286
aF-0.0292
aF-0.0283
aF-0.0299
aF-0.0298
aF-0.029
aF-0.0287
aF-0.0295
aF-0.0271
aF-0.03
aF-0.029
aF-0.0285
aF-0.0277
aF-0.0289
aF-0.0284
aF-0.0289
aF-0.0294
aF-0.0293
aF-0.0286
aF-0.0279
aF-0.0281
aF-0.0283
aF-0.0295
aF-0.029
aF-0.0292
aF-0.0284
aF-0.028
aF-0.0302
aF-0.0278
aF-0.0297
aF-0.0292
aF-0.0277
aF-0.029
aF-0.0298
aF-0.0302
aF-0.029
aF-0.028
aF-0.0295
aF-0.0301
aF-0.0293
aF-0.03
asS'htune'
p9
(lp10
F25.469999243
aF25.309999396
asscnumpy.core.multiarray
scalar
p11
(cnumpy
dtype
p12
(S'i8'
p13
I0
I1
tp14
Rp15
(I3
S'<'
p16
NNNI-1
I-1
I0
tp17
bS'\x01\x00\x00\x00\x00\x00\x00\x00'
p18
tp19
Rp20
(dp21
S'i'
p22
I1
sS'vtune'
p23
(lp24
F24.450000784
aF24.450000784
asS'htune'
p25
(lp26
F25.469999243
aF25.309999396
asS'beam'
p27
(lp28
F-0.0292
aF-0.0298
aF-0.0287
aF-0.0288
aF-0.0277
aF-0.0295
aF-0.029
aF-0.0296
aF-0.0303
aF-0.0302
aF-0.03
aF-0.0297
aF-0.029
aF-0.0298
aF-0.0283
aF-0.0281
aF-0.0283
aF-0.0297
aF-0.0286
aF-0.0289
aF-0.0289
aF-0.0281
aF-0.0293
aF-0.0282
aF-0.0292
aF-0.0283
aF-0.0289
aF0.7564
aF1.135
aF1.134
aF1.133
aF1.134
aF1.135
aF1.134
aF1.134
aF1.133
aF1.135
aF1.135
aF1.135
aF1.135
aF1.135
aF1.135
aF1.135
aF1.135
aF1.135
aF1.135
aF1.134
aF1.134
aF1.134
aF1.135
aF1.135
aF1.135
aF1.136
aF1.135
aF1.134
aF1.135
aF1.134
aF1.135
aF1.134
aF1.134
aF1.134
aF1.134
aF1.135
aF1.134
aF1.134
aF1.134
aF1.134
aF1.133
aF1.134
aF1.134
aF1.135
aF1.135
aF1.134
aF1.133
aF1.135
aF1.135
aF1.135
aF1.133
aF1.134
aF1.135
aF1.134
aF1.135
aF1.134
aF1.134
aF1.134
aF1.135
aF1.135
aF1.133
aF1.135
aF1.133
aF1.133
aF1.134
aF1.135
aF1.134
aF1.132
aF1.133
aF1.133
aF1.134
aF1.134
aF1.134
aF1.135
aF1.135
aF1.133
aF1.135
aF1.135
aF1.134
aF1.133
aF1.133
aF1.134
aF1.134
aF1.132
aF1.134
aF1.135
aF1.134
aF1.133
aF1.135
aF1.133
aF1.133
aF1.134
aF1.133
aF1.134
aF1.134
aF1.135
aF1.136
aF1.134
aF1.133
aF1.133
aF1.134
aF1.136
aF1.134
aF1.134
aF1.134
aF1.133
aF1.133
aF1.135
aF1.134
aF1.133
aF1.134
aF1.132
aF1.134
aF1.134
aF1.133
aF1.134
aF1.134
aF1.133
aF1.133
aF1.136
aF1.134
aF1.135
aF1.133
aF1.131
aF1.134
aF1.134
aF1.135
aF1.134
aF1.134
aF1.133
aF1.134
aF1.134
aF1.134
aF1.135
aF1.133
aF1.134
aF1.134
aF1.134
aF1.133
aF1.133
aF1.134
aF1.134
aF1.133
aF1.134
aF1.133
aF1.134
aF1.135
aF1.134
aF1.133
aF1.134
aF1.135
aF1.133
aF1.133
aF1.134
aF1.135
aF1.134
aF1.135
aF1.135
aF1.134
aF1.134
aF1.134
aF1.133
aF1.135
aF1.133
aF1.134
aF1.134
aF1.134
aF1.134
aF1.134
aF1.134
aF1.135
aF1.134
aF1.134
aF1.135
aF1.135
aF1.133
aF1.133
aF1.134
aF1.134
aF1.134
aF1.135
aF1.135
aF1.134
aF1.132
aF1.134
aF1.135
aF1.135
aF1.133
aF1.134
aF1.133
aF1.133
aF1.134
aF1.134
aF1.134
aF1.133
aF1.133
aF1.134
aF1.134
aF1.135
aF1.133
aF1.133
aF1.134
aF1.134
aF1.133
aF1.134
aF1.135
aF1.133
aF1.134
aF1.134
aF1.134
aF1.133
aF1.132
aF1.134
aF1.133
aF1.133
aF1.134
aF1.135
aF1.134
aF1.133
aF1.133
aF1.134
aF1.134
aF1.133
aF1.133
aF1.133
aF1.131
aF1.134
aF1.134
aF1.134
aF1.134
aF1.133
aF1.133
aF1.134
aF1.134
aF1.133
aF1.134
aF1.133
aF1.134
aF1.133
aF1.134
aF1.134
aF1.134
aF1.133
aF1.132
aF1.133
aF1.134
aF1.133
aF1.133
aF1.132
aF1.133
aF1.133
aF1.134
aF1.134
aF1.133
aF1.133
aF1.133
aF1.133
aF1.133
aF1.133
aF1.129
aF1.132
aF1.132
aF1.131
aF1.13
aF1.133
aF1.132
aF1.131
aF1.13
aF1.133
aF1.132
aF1.131
aF1.132
aF1.13
aF1.13
aF1.132
aF1.132
aF1.132
aF1.131
aF1.132
aF1.129
aF1.131
aF1.133
aF1.131
aF1.131
aF1.131
aF1.13
aF1.131
aF1.132
aF1.131
aF1.132
aF1.131
aF1.13
aF1.131
aF1.131
aF1.132
aF1.13
aF1.13
aF1.131
aF1.13
aF1.13
aF1.131
aF1.132
aF1.13
aF1.131
aF1.131
aF1.131
aF1.131
aF1.13
aF1.13
aF1.131
aF1.13
aF1.131
aF1.13
aF1.131
aF1.129
aF1.13
aF1.13
aF1.131
aF1.13
aF1.128
aF1.129
aF1.129
aF1.13
aF1.13
aF1.129
aF1.13
aF1.129
aF1.128
aF1.13
aF1.13
aF1.13
aF1.128
aF1.129
aF1.129
aF1.129
aF1.13
aF1.13
aF1.13
aF1.129
aF1.129
aF1.129
aF1.13
aF1.128
aF1.128
aF1.128
aF1.128
aF1.129
aF1.13
aF1.128
aF1.129
aF1.129
aF1.128
aF1.13
aF1.129
aF1.129
aF1.129
aF1.13
aF1.128
aF1.127
aF1.128
aF1.129
aF1.129
aF1.128
aF1.128
aF1.129
aF1.129
aF1.128
aF1.127
aF1.128
aF1.128
aF1.128
aF1.127
aF1.128
aF1.129
aF1.128
aF1.127
aF1.126
aF1.127
aF1.126
aF1.127
aF1.126
aF1.126
aF1.125
aF1.127
aF1.126
aF1.126
aF1.125
aF1.125
aF1.126
aF1.126
aF1.125
aF1.124
aF1.124
aF1.125
aF1.123
aF1.125
aF1.125
aF1.123
aF1.123
aF1.122
aF1.122
aF1.122
aF1.122
aF1.119
aF1.119
aF1.119
aF1.119
aF1.119
aF1.117
aF1.116
aF1.113
aF1.111
aF1.104
aF1.098
aF1.091
aF1.082
aF1.063
aF1.042
aF1.019
aF0.9675
aF0.8475
aF0.7081
aF0.5916
aF0.4716
aF0.3313
aF0.2449
aF0.2171
aF0.197
aF0.1686
aF0.144
aF0.1269
aF0.1019
aF0.0739
aF0.0588
aF0.0517
aF0.0456
aF0.0414
aF0.0401
aF0.0346
aF0.0336
aF0.0299
aF0.0297
aF0.0261
aF0.0255
aF0.0238
aF0.0215
aF0.021
aF0.021
aF0.0199
aF0.0184
aF0.0203
aF0.0186
aF0.0182
aF0.0173
aF0.0165
aF0.0178
aF0.018
aF0.0174
aF0.0165
aF0.0165
aF0.0172
aF0.0175
aF0.0185
aF0.0166
aF0.0167
aF0.0158
aF0.0173
aF0.0186
aF0.0176
aF0.0187
aF0.0177
aF0.0177
aF0.0164
aF0.017
aF0.0179
aF0.0171
aF0.0165
aF0.0172
aF0.0165
aF0.0169
aF0.0181
aF0.0178
aF0.0164
aF0.0164
aF0.0163
aF0.0169
aF0.0165
aF0.0167
aF0.0172
aF0.017
aF0.0177
aF0.018
aF0.0194
aF0.0182
aF0.0166
aF0.0166
aF0.0173
aF0.0174
aF0.0179
aF0.0181
aF0.0178
aF0.0167
aF0.0159
aF0.0171
aF0.0162
aF0.0176
aF0.0158
aF0.0158
aF0.0163
aF0.0166
aF0.0175
aF0.0169
aF0.0169
aF0.0166
aF0.0172
aF0.0179
aF0.0181
aF0.0175
aF0.0173
aF0.0173
aF0.0161
aF0.0181
aF0.0174
aF0.0166
aF0.0169
aF0.0158
aF0.0167
aF0.0177
aF0.0175
aF0.018
aF0.0166
aF0.0166
aF0.0158
aF0.0179
aF0.0175
aF0.0161
aF0.0166
aF0.0168
aF0.0175
aF0.0169
aF0.0183
aF0.0177
aF0.0168
aF0.0168
aF0.0166
aF0.0173
aF0.0153
aF0.0166
aF0.0172
aF-0.0071
aF-0.0304
aF-0.0284
aF-0.0293
aF-0.0273
aF-0.0298
aF-0.0298
aF-0.0292
aF-0.0288
aF-0.0289
aF-0.0289
aF-0.0297
aF-0.0289
aF-0.0288
aF-0.0287
aF-0.0287
aF-0.029
aF-0.0285
aF-0.0287
aF-0.0283
aF-0.0274
aF-0.0283
aF-0.0282
aF-0.03
aF-0.028
aF-0.0289
aF-0.0289
aF-0.0292
aF-0.0284
aF-0.0297
aF-0.0288
aF-0.0293
aF-0.0269
aF-0.0281
aF-0.0272
aF-0.0305
aF-0.0288
aF-0.0281
aF-0.0281
aF-0.0288
aF-0.0287
aF-0.0285
aF-0.0305
aF-0.0298
aF-0.0286
aF-0.0287
aF-0.0297
aF-0.0295
aF-0.0288
aF-0.0282
aF-0.0282
aF-0.0292
aF-0.0287
aF-0.0299
aF-0.0296
aF-0.0297
aF-0.029
aF-0.0288
aF-0.0282
aF-0.0296
aF-0.0286
aF-0.0284
aF-0.0292
aF-0.0283
aF-0.029
aF-0.0277
aF-0.0292
aF-0.0289
aF-0.028
aF-0.0272
aF-0.0302
aF-0.0295
aF-0.0301
aF-0.0295
aF-0.0296
aF-0.0288
aF-0.0288
aF-0.0294
aF-0.0295
aF-0.0292
aF-0.0284
aF-0.0303
aF-0.0283
aF-0.0293
aF-0.0292
aF-0.0316
aF-0.0284
aF-0.0279
aF-0.0279
aF-0.0294
aF-0.0283
aF-0.0289
aF-0.0291
aF-0.0288
aF-0.0287
aF-0.0295
aF-0.0297
aF-0.0302
aF-0.0302
aF-0.0281
aF-0.0272
aF-0.0291
aF-0.0288
aF-0.0303
aF-0.0295
aF-0.029
aF-0.0297
aF-0.0286
aF-0.0297
aF-0.0303
aF-0.0285
aF-0.0294
aF-0.0281
aF-0.0282
aF-0.0282
aF-0.0278
aF-0.0287
aF-0.0289
aF-0.0286
aF-0.0298
aF-0.029
aF-0.0296
aF-0.0303
aF-0.0291
aF-0.0288
aF-0.0284
aF-0.0295
aF-0.0292
aF-0.0287
aF-0.0282
aF-0.0289
aF-0.0296
aF-0.0293
aF-0.0293
aF-0.0297
aF-0.0288
aF-0.029
aF-0.0295
aF-0.0296
aF-0.0291
aF-0.0287
aF-0.0289
aF-0.0298
aF-0.0279
aF-0.0294
aF-0.029
aF-0.0299
aF-0.029
aF-0.028
aF-0.0294
aF-0.0289
aF-0.0302
aF-0.0294
aF-0.0291
aF-0.0305
aF-0.03
aF-0.0291
aF-0.0296
aF-0.0291
aF-0.0291
aF-0.0286
aF-0.0283
aF-0.0285
aF-0.0288
aF-0.0293
aF-0.028
aF-0.0289
aF-0.0288
aF-0.0291
aF-0.0275
aF-0.0293
aF-0.0283
aF-0.0296
aF-0.0284
aF-0.0292
aF-0.0289
aF-0.0286
aF-0.0285
aF-0.0293
aF-0.0288
aF-0.0298
aF-0.0289
aF-0.0289
aF-0.0288
aF-0.0286
aF-0.0286
aF-0.0285
aF-0.0297
aF-0.0288
aF-0.0281
aF-0.0289
aF-0.0288
aF-0.0295
aF-0.0306
aF-0.0299
aF-0.0292
aF-0.0282
aF-0.0292
aF-0.0291
aF-0.0302
aF-0.0284
aF-0.0288
aF-0.0296
aF-0.0306
aF-0.0292
aF-0.0294
aF-0.0288
aF-0.029
aF-0.0282
aF-0.0299
aF-0.029
aF-0.03
aF-0.03
aF-0.0276
aF-0.0288
aF-0.0296
aF-0.0305
aF-0.0289
aF-0.0287
aF-0.0289
aF-0.0287
aF-0.0292
aF-0.0284
aF-0.0289
aF-0.0287
aF-0.0281
aF-0.0293
aF-0.0297
aF-0.0285
aF-0.029
aF-0.0304
aF-0.0302
aF-0.0286
aF-0.0283
aF-0.0298
aF-0.0278
aF-0.0295
aF-0.0297
aF-0.0284
aF-0.0299
aF-0.0296
aF-0.0295
aF-0.0296
aF-0.0294
aF-0.0285
aF-0.0285
aF-0.0293
aF-0.0289
aF-0.0289
aF-0.029
aF-0.0294
aF-0.0291
aF-0.0304
aF-0.0304
aF-0.0289
aF-0.0291
aF-0.0275
aF-0.0298
aF-0.029
aF-0.0301
aF-0.0292
aF-0.0293
aF-0.0287
aF-0.0294
aF-0.0297
aF-0.0285
aF-0.0287
aF-0.0284
aF-0.0281
aF-0.0284
aF-0.0299
aF-0.0291
aF-0.0298
aF-0.0291
aF-0.0297
aF-0.03
aF-0.0288
aF-0.0297
aF-0.0302
aF-0.0276
aF-0.0289
aF-0.029
aF-0.0295
aF-0.0291
aF-0.0292
aF-0.0284
aF-0.0295
aF-0.0292
aF-0.0297
aF-0.0293
aF-0.0289
aF-0.0286
aF-0.0294
aF-0.028
aF-0.0296
aF-0.0293
aF-0.0305
aF-0.0287
aF-0.0286
aF-0.0296
aF-0.0303
aF-0.0301
aF-0.0294
aF-0.029
aF-0.0295
aF-0.0285
aF-0.0292
aF-0.03
aF-0.03
aF-0.0295
aF-0.0291
aF-0.0301
aF-0.0309
aF-0.0292
aF-0.0287
aF-0.0286
aF-0.0283
aF-0.0277
aF-0.0289
aF-0.0304
aF-0.0287
aF-0.0287
aF-0.0293
aF-0.0294
aF-0.0295
aF-0.0295
aF-0.0297
aF-0.0285
aF-0.0285
aF-0.0295
aF-0.0302
aF-0.0287
aF-0.0287
aF-0.0301
aF-0.0294
aF-0.0298
aF-0.0299
aF-0.0288
aF-0.0288
aF-0.0278
aF-0.0293
aF-0.0286
aF-0.0295
aF-0.0304
aF-0.0289
aF-0.0283
aF-0.0304
aF-0.03
aF-0.0301
aF-0.0289
aF-0.0294
aF-0.0277
aF-0.0286
aF-0.0278
aF-0.0289
aF-0.0302
aF-0.0287
aF-0.0293
aF-0.0305
aF-0.0298
aF-0.0293
asS'time'
p29
(lp30
F0.0001
aF0.0015
aF0.0029
aF0.0043
aF0.0057
aF0.0071
aF0.0084
aF0.0098
aF0.0112
aF0.0126
aF0.014
aF0.0154
aF0.0168
aF0.0182
aF0.0196
aF0.0209
aF0.0223
aF0.0237
aF0.0251
aF0.0265
aF0.0279
aF0.0293
aF0.0307
aF0.0321
aF0.0334
aF0.0348
aF0.0362
aF0.0376
aF0.039
aF0.0404
aF0.0418
aF0.0432
aF0.0446
aF0.0459
aF0.0473
aF0.0487
aF0.0501
aF0.0515
aF0.0529
aF0.0543
aF0.0557
aF0.0571
aF0.0584
aF0.0598
aF0.0612
aF0.0626
aF0.064
aF0.0654
aF0.0668
aF0.0682
aF0.0696
aF0.0709
aF0.0723
aF0.0737
aF0.0751
aF0.0765
aF0.0779
aF0.0793
aF0.0807
aF0.0821
aF0.0835
aF0.0848
aF0.0862
aF0.0876
aF0.089
aF0.0904
aF0.0918
aF0.0932
aF0.0946
aF0.096
aF0.0973
aF0.0987
aF0.1001
aF0.1015
aF0.1029
aF0.1043
aF0.1057
aF0.1071
aF0.1085
aF0.1098
aF0.1112
aF0.1126
aF0.114
aF0.1154
aF0.1168
aF0.1182
aF0.1196
aF0.121
aF0.1223
aF0.1237
aF0.1251
aF0.1265
aF0.1279
aF0.1293
aF0.13070001
aF0.1321
aF0.13349999
aF0.1348
aF0.1362
aF0.1376
aF0.139
aF0.14040001
aF0.1418
aF0.1432
aF0.1446
aF0.146
aF0.14740001
aF0.1487
aF0.15009999
aF0.1515
aF0.1529
aF0.1543
aF0.1557
aF0.15710001
aF0.1585
aF0.15989999
aF0.1612
aF0.1626
aF0.164
aF0.1654
aF0.16680001
aF0.1682
aF0.1696
aF0.171
aF0.1724
aF0.1737
aF0.1751
aF0.17649999
aF0.1779
aF0.1793
aF0.1807
aF0.1821
aF0.18350001
aF0.1849
aF0.18629999
aF0.1876
aF0.189
aF0.1904
aF0.1918
aF0.19320001
aF0.1946
aF0.19599999
aF0.1974
aF0.1987
aF0.2001
aF0.2015
aF0.20290001
aF0.2043
aF0.2057
aF0.2071
aF0.2085
aF0.20990001
aF0.2113
aF0.21259999
aF0.214
aF0.2154
aF0.2168
aF0.2182
aF0.21960001
aF0.221
aF0.22239999
aF0.2238
aF0.2251
aF0.2265
aF0.2279
aF0.22930001
aF0.2307
aF0.2321
aF0.2335
aF0.2349
aF0.23630001
aF0.2376
aF0.23899999
aF0.2404
aF0.2418
aF0.2432
aF0.2446
aF0.24600001
aF0.2474
aF0.24879999
aF0.25009999
aF0.25150001
aF0.2529
aF0.2543
aF0.25569999
aF0.25709999
aF0.25850001
aF0.2599
aF0.2613
aF0.2626
aF0.264
aF0.26539999
aF0.26679999
aF0.26820001
aF0.2696
aF0.271
aF0.27239999
aF0.27379999
aF0.27520001
aF0.27649999
aF0.27790001
aF0.2793
aF0.2807
aF0.28209999
aF0.28349999
aF0.28490001
aF0.2863
aF0.2877
aF0.289
aF0.2904
aF0.29179999
aF0.29319999
aF0.29460001
aF0.296
aF0.2974
aF0.29879999
aF0.30019999
aF0.30149999
aF0.30289999
aF0.30430001
aF0.3057
aF0.3071
aF0.30849999
aF0.30989999
aF0.31130001
aF0.3127
aF0.31400001
aF0.3154
aF0.3168
aF0.31819999
aF0.31959999
aF0.32100001
aF0.3224
aF0.3238
aF0.32519999
aF0.3265
aF0.32789999
aF0.32929999
aF0.33070001
aF0.3321
aF0.3335
aF0.33489999
aF0.33629999
aF0.33770001
aF0.3391
aF0.34040001
aF0.3418
aF0.3432
aF0.34459999
aF0.34599999
aF0.34740001
aF0.3488
aF0.3502
aF0.35159999
aF0.3529
aF0.35429999
aF0.35569999
aF0.35710001
aF0.3585
aF0.3599
aF0.36129999
aF0.36269999
aF0.36410001
aF0.36539999
aF0.36680001
aF0.3682
aF0.3696
aF0.37099999
aF0.37239999
aF0.37380001
aF0.3752
aF0.3766
aF0.3779
aF0.3793
aF0.38069999
aF0.38209999
aF0.38350001
aF0.3849
aF0.3863
aF0.38769999
aF0.38909999
aF0.39050001
aF0.39179999
aF0.39320001
aF0.3946
aF0.396
aF0.39739999
aF0.39879999
aF0.40020001
aF0.4016
aF0.403
aF0.4043
aF0.4057
aF0.40709999
aF0.40849999
aF0.40990001
aF0.4113
aF0.4127
aF0.41409999
aF0.41549999
aF0.41679999
aF0.41819999
aF0.41960001
aF0.421
aF0.4224
aF0.42379999
aF0.42519999
aF0.42660001
aF0.428
aF0.42930001
aF0.4307
aF0.4321
aF0.43349999
aF0.43489999
aF0.43630001
aF0.4377
aF0.4391
aF0.44049999
aF0.4418
aF0.44319999
aF0.44459999
aF0.44600001
aF0.4474
aF0.4488
aF0.45019999
aF0.45159999
aF0.45300001
aF0.4544
aF0.45570001
aF0.4571
aF0.4585
aF0.45989999
aF0.46129999
aF0.46270001
aF0.4641
aF0.4655
aF0.46689999
aF0.4682
aF0.46959999
aF0.47099999
aF0.47240001
aF0.4738
aF0.4752
aF0.47659999
aF0.47799999
aF0.47940001
aF0.48069999
aF0.48210001
aF0.4835
aF0.4849
aF0.48629999
aF0.48769999
aF0.48910001
aF0.4905
aF0.4919
aF0.4932
aF0.4946
aF0.49599999
aF0.49739999
aF0.49880001
aF0.50019997
aF0.50160003
aF0.50300002
aF0.50440001
aF0.50569999
aF0.50709999
aF0.50849998
aF0.50989997
aF0.51130003
aF0.51270002
aF0.51410002
aF0.51550001
aF0.5169
aF0.5183
aF0.51959997
aF0.52100003
aF0.52240002
aF0.52380002
aF0.52520001
aF0.5266
aF0.528
aF0.52939999
aF0.53079998
aF0.53210002
aF0.53350002
aF0.53490001
aF0.5363
aF0.5377
aF0.53909999
aF0.54049999
aF0.54189998
aF0.54329997
aF0.54460001
aF0.546
aF0.5474
aF0.54879999
aF0.55019999
aF0.55159998
aF0.55299997
aF0.55440003
aF0.55580002
aF0.5571
aF0.55849999
aF0.55989999
aF0.56129998
aF0.56269997
aF0.56410003
aF0.56550002
aF0.56690001
aF0.56830001
aF0.56959999
aF0.57099998
aF0.57239997
aF0.57380003
aF0.57520002
aF0.57660002
aF0.57800001
aF0.5794
aF0.5808
aF0.58219999
aF0.58350003
aF0.58490002
aF0.58630002
aF0.58770001
aF0.5891
aF0.5905
aF0.59189999
aF0.59329998
aF0.59469998
aF0.59600002
aF0.59740001
aF0.5988
aF0.6002
aF0.60159999
aF0.60299999
aF0.60439998
aF0.60579997
aF0.60720003
aF0.6085
aF0.6099
aF0.61129999
aF0.61269999
aF0.61409998
aF0.61549997
aF0.61690003
aF0.61830002
aF0.61970001
aF0.62099999
aF0.62239999
aF0.62379998
aF0.62519997
aF0.62660003
aF0.62800002
aF0.62940001
aF0.63080001
aF0.6322
aF0.63349998
aF0.63489997
aF0.63630003
aF0.63770002
aF0.63910002
aF0.64050001
aF0.6419
aF0.6433
aF0.64469999
aF0.64609998
aF0.64740002
aF0.64880002
aF0.65020001
aF0.6516
aF0.653
aF0.65439999
aF0.65579998
aF0.65719998
aF0.65719998
aF0.65859997
aF0.66000003
aF0.6613
aF0.6627
aF0.66409999
aF0.66689998
aF0.66829997
aF0.66970003
aF0.67110002
aF0.6724
aF0.67379999
aF0.67379999
aF0.67519999
aF0.67659998
aF0.67799997
aF0.67940003
aF0.68080002
aF0.68360001
aF0.68489999
aF0.68629998
aF0.68769997
aF0.68910003
aF0.69050002
aF0.69050002
aF0.69190001
aF0.69330001
aF0.6947
aF0.6961
aF0.69749999
aF0.70020002
aF0.70160002
aF0.70300001
aF0.7044
aF0.7058
aF0.70719999
aF0.70719999
aF0.70859998
aF0.70999998
aF0.71130002
aF0.71270001
aF0.7141
aF0.71689999
aF0.71829998
aF0.71969998
aF0.72109997
aF0.72250003
aF0.7238
aF0.7238
aF0.7252
aF0.72659999
aF0.72799999
aF0.72939998
aF0.73079997
aF0.73360002
aF0.73500001
aF0.73629999
aF0.73769999
aF0.73909998
aF0.74049997
aF0.74049997
aF0.74190003
aF0.74330002
aF0.74470001
aF0.74610001
aF0.7475
aF0.75019997
aF0.75160003
aF0.75300002
aF0.75440001
aF0.75580001
aF0.7572
aF0.7572
aF0.7586
aF0.75999999
aF0.76139998
aF0.76270002
aF0.76410002
aF0.7669
aF0.7683
aF0.76969999
aF0.77109998
aF0.77249998
aF0.77389997
aF0.77389997
aF0.77520001
aF0.7766
aF0.778
aF0.77939999
aF0.78079998
aF0.78359997
aF0.78500003
aF0.78640002
aF0.7877
aF0.78909999
aF0.79049999
aF0.79049999
aF0.79189998
aF0.79329997
aF0.79470003
aF0.79610002
aF0.79750001
aF0.80019999
aF0.80159998
aF0.80299997
aF0.80440003
aF0.80580002
aF0.80720001
aF0.80720001
aF0.80860001
aF0.81
aF0.8114
aF0.81269997
aF0.81410003
aF0.81690001
aF0.81830001
aF0.8197
aF0.8197
aF0.8211
aF0.82249999
aF0.82389998
aF0.82529998
aF0.82660002
aF0.82800001
aF0.8294
aF0.8308
aF0.83359998
aF0.83499998
aF0.83499998
aF0.83639997
aF0.83780003
aF0.83920002
aF0.8405
aF0.84189999
aF0.84329998
aF0.84469998
aF0.84609997
aF0.84750003
aF0.84890002
aF0.85159999
aF0.85159999
aF0.8531
aF0.85439998
aF0.85579997
aF0.85720003
aF0.85860002
aF0.86000001
aF0.86140001
aF0.8628
aF0.86409998
aF0.86549997
aF0.86830002
aF0.86830002
aF0.86970001
aF0.87110001
aF0.8725
aF0.8739
aF0.87529999
aF0.87660003
aF0.87800002
aF0.87940001
aF0.88080001
aF0.8822
aF0.8836
aF0.88499999
aF0.88639998
aF0.88779998
aF0.88919997
aF0.89050001
aF0.8919
aF0.8933
aF0.89469999
aF0.89609998
aF0.89749998
aF0.89889997
aF0.90030003
aF0.90170002
aF0.903
aF0.90439999
aF0.90579998
aF0.90719998
aF0.90859997
aF0.91000003
aF0.91140002
aF0.91280001
aF0.91420001
aF0.91549999
aF0.91689998
aF0.91829997
aF0.91970003
aF0.92110002
aF0.92250001
aF0.92390001
aF0.9253
aF0.9267
aF0.92799997
aF0.92940003
aF0.93080002
aF0.93220001
aF0.935
aF0.935
aF0.9364
aF0.93779999
aF0.93919998
aF0.94050002
aF0.94190001
aF0.94330001
aF0.9447
aF0.9461
aF0.94749999
aF0.94889998
aF0.95029998
aF0.95169997
aF0.95310003
aF0.9544
aF0.9558
aF0.95719999
aF0.95859998
aF0.95999998
aF0.96139997
aF0.96280003
aF0.96420002
aF0.96560001
aF0.96689999
aF0.96829998
aF0.96969998
aF0.97109997
aF0.97250003
aF0.97390002
aF0.97530001
aF0.97670001
aF0.9781
aF0.9795
aF0.98079997
aF0.98220003
aF0.98360002
aF0.98500001
aF0.98640001
aF0.9878
aF0.9892
aF0.99059999
aF0.99199998
aF0.99330002
aF0.99470001
aF0.99610001
aF0.9975
aF0.9989
aF1.0003
aF1.0017
aF1.0031
aF1.0045
aF1.0058
aF1.0072
aF1.0086
aF1.01
aF1.0114
aF1.0128
aF1.0142
aF1.0156
aF1.017
aF1.0183001
aF1.0197001
aF1.0211
aF1.0225
aF1.0239
aF1.0253
aF1.0267
aF1.0281
aF1.0295
aF1.0308
aF1.0322
aF1.0336
aF1.035
aF1.0364
aF1.0378
aF1.0391999
aF1.0405999
aF1.0420001
aF1.0434
aF1.0447
aF1.0461
aF1.0475
aF1.0489
aF1.0503
aF1.0517
aF1.0531
aF1.0545
aF1.0559
aF1.0572
aF1.0585999
aF1.0599999
aF1.0614001
aF1.0628
aF1.0642
aF1.0656
aF1.067
aF1.0684
aF1.0697
aF1.0711
aF1.0725
aF1.0739
aF1.0753
aF1.0767
aF1.0781
aF1.0795
aF1.0809
aF1.0822001
aF1.0836
aF1.085
aF1.0864
aF1.0878
aF1.0892
aF1.0906
aF1.092
aF1.0934
aF1.0947
aF1.0961
aF1.0975
aF1.0989
aF1.1003
aF1.1016999
aF1.1030999
aF1.1045001
aF1.1059
aF1.1072
aF1.1086
aF1.11
aF1.1114
aF1.1128
aF1.1142
aF1.1156
aF1.117
aF1.1184
aF1.1198
aF1.1210999
aF1.1224999
aF1.1239001
aF1.1253
aF1.1267
aF1.1281
aF1.1295
aF1.1309
aF1.1323
aF1.1336
aF1.135
aF1.1364
aF1.1378
aF1.1392
aF1.1406
aF1.142
aF1.1434
aF1.1447999
aF1.1461
aF1.1475
aF1.1489
aF1.1503
aF1.1517
aF1.1531
aF1.1545
aF1.1559
aF1.1573
aF1.1586
aF1.16
aF1.1614
aF1.1628
aF1.1641999
aF1.1655999
aF1.1670001
aF1.1684
aF1.1698
aF1.1712
aF1.1725
aF1.1739
aF1.1753
aF1.1767
aF1.1781
aF1.1795
aF1.1809
aF1.1823
aF1.1835999
aF1.1849999
aF1.1864001
aF1.1878
aF1.1892
aF1.1906
aF1.192
aF1.1934
aF1.1948
aF1.1962
aF1.1975
aF1.1989
aF1.2003
aF1.2017
aF1.2031
aF1.2045
aF1.2059
aF1.2072999
aF1.2086999
aF1.21
aF1.2114
aF1.2128
aF1.2142
aF1.2156
aF1.217
aF1.2184
aF1.2198
aF1.2212
aF1.2225
aF1.2239
aF1.2253
aF1.2266999
aF1.2280999
aF1.2295001
aF1.2309
aF1.2323
aF1.2337
aF1.2351
aF1.2364
aF1.2378
aF1.2392
aF1.2406
aF1.242
aF1.2434
aF1.2448
aF1.2462
aF1.2476
aF1.2489001
aF1.2503
aF1.2517
aF1.2531
aF1.2545
aF1.2559
aF1.2573
aF1.2587
aF1.2601
aF1.2614
aF1.2628
aF1.2642
aF1.2656
aF1.267
aF1.2684
aF1.2697999
aF1.2711999
aF1.2726001
aF1.2739
aF1.2753
aF1.2767
aF1.2781
aF1.2795
aF1.2809
aF1.2823
aF1.2837
aF1.2851
aF1.2864
aF1.2878
aF1.2891999
aF1.2905999
aF1.2920001
aF1.2934
aF1.2948
aF1.2962
aF1.2976
aF1.299
assg11
(g15
S'\x02\x00\x00\x00\x00\x00\x00\x00'
p31
tp32
Rp33
(dp34
S'i'
p35
I2
sS'vtune'
p36
(lp37
F24.450000784
aF24.450000784
asS'time'
p38
(lp39
F0.0003
aF0.0017
aF0.003
aF0.0044
aF0.0058
aF0.0072
aF0.0072
aF0.0086
aF0.0114
aF0.0114
aF0.0128
aF0.0142
aF0.0169
aF0.0183
aF0.0197
aF0.0211
aF0.0225
aF0.0239
aF0.0239
aF0.0253
aF0.0267
aF0.028
aF0.0294
aF0.0308
aF0.0336
aF0.035
aF0.0364
aF0.0378
aF0.0392
aF0.0406
aF0.0406
aF0.0419
aF0.0433
aF0.0447
aF0.0461
aF0.0475
aF0.0503
aF0.0517
aF0.0531
aF0.0544
aF0.0558
aF0.0572
aF0.0572
aF0.0586
aF0.06
aF0.0614
aF0.0628
aF0.0642
aF0.0669
aF0.0683
aF0.0697
aF0.0711
aF0.0725
aF0.0739
aF0.0739
aF0.0753
aF0.0767
aF0.0781
aF0.0794
aF0.0808
aF0.0836
aF0.085
aF0.0864
aF0.0878
aF0.0892
aF0.0906
aF0.0906
aF0.0919
aF0.0933
aF0.0947
aF0.0961
aF0.0975
aF0.0989
aF0.1017
aF0.1017
aF0.1031
aF0.1045
aF0.1059
aF0.1072
aF0.1086
aF0.11
aF0.1114
aF0.1128
aF0.1142
aF0.1156
aF0.1183
aF0.1197
aF0.1211
aF0.1225
aF0.1239
aF0.1239
aF0.12530001
aF0.1267
aF0.12809999
aF0.1295
aF0.13079999
aF0.1336
aF0.13500001
aF0.1364
aF0.13779999
aF0.1392
aF0.1406
aF0.1406
aF0.142
aF0.1433
aF0.14470001
aF0.1461
aF0.14749999
aF0.1489
aF0.1517
aF0.1517
aF0.1531
aF0.15449999
aF0.1559
aF0.15719999
aF0.1586
aF0.16
aF0.16140001
aF0.1628
aF0.16419999
aF0.1656
aF0.167
aF0.1684
aF0.1697
aF0.17110001
aF0.1725
aF0.17389999
aF0.1753
aF0.1767
aF0.1781
aF0.1795
aF0.18089999
aF0.1822
aF0.185
aF0.1864
aF0.1864
aF0.18780001
aF0.1892
aF0.19059999
aF0.192
aF0.1934
aF0.1947
aF0.1961
aF0.19750001
aF0.1989
aF0.2017
aF0.2017
aF0.2031
aF0.2045
aF0.2059
aF0.20720001
aF0.2086
aF0.20999999
aF0.2114
aF0.2128
aF0.2142
aF0.2156
aF0.21699999
aF0.2184
aF0.2198
aF0.2211
aF0.2225
aF0.22390001
aF0.2253
aF0.22669999
aF0.2281
aF0.2295
aF0.2309
aF0.2323
aF0.23360001
aF0.235
aF0.23639999
aF0.2378
aF0.2392
aF0.2406
aF0.242
aF0.24339999
aF0.2448
aF0.24609999
aF0.2475
aF0.2489
aF0.25029999
aF0.2518
aF0.25310001
aF0.2545
aF0.2559
aF0.25729999
aF0.2586
aF0.25999999
aF0.26140001
aF0.26280001
aF0.2642
aF0.2656
aF0.26840001
aF0.26840001
aF0.26980001
aF0.27110001
aF0.27250001
aF0.2739
aF0.2753
aF0.27669999
aF0.27810001
aF0.27950001
aF0.2809
aF0.2823
aF0.28369999
aF0.285
aF0.28639999
aF0.28780001
aF0.28920001
aF0.2906
aF0.292
aF0.29339999
aF0.29480001
aF0.29620001
aF0.29750001
aF0.29890001
aF0.3003
aF0.3017
aF0.30309999
aF0.30450001
aF0.30590001
aF0.3073
aF0.3087
aF0.31
aF0.3114
aF0.31279999
aF0.31420001
aF0.31560001
aF0.317
aF0.3184
aF0.31979999
aF0.32120001
aF0.32249999
aF0.32390001
aF0.32530001
aF0.3267
aF0.3281
aF0.32949999
aF0.33090001
aF0.33230001
aF0.33500001
aF0.33500001
aF0.3364
aF0.3378
aF0.33919999
aF0.34060001
aF0.34200001
aF0.3434
aF0.3448
aF0.34619999
aF0.34760001
aF0.34889999
aF0.35030001
aF0.35170001
aF0.3531
aF0.3545
aF0.35589999
aF0.35730001
aF0.35870001
aF0.3601
aF0.36140001
aF0.3628
aF0.3642
aF0.36559999
aF0.36700001
aF0.36840001
aF0.3698
aF0.3712
aF0.37259999
aF0.3739
aF0.37529999
aF0.37670001
aF0.37810001
aF0.3795
aF0.3809
aF0.38229999
aF0.38370001
aF0.38510001
aF0.3865
aF0.38780001
aF0.3892
aF0.3906
aF0.39199999
aF0.39340001
aF0.39480001
aF0.3962
aF0.3976
aF0.3989
aF0.4003
aF0.40169999
aF0.40310001
aF0.40450001
aF0.4059
aF0.4073
aF0.40869999
aF0.41010001
aF0.41150001
aF0.41280001
aF0.41420001
aF0.4156
aF0.417
aF0.41839999
aF0.41980001
aF0.42120001
aF0.4226
aF0.42399999
aF0.4253
aF0.4267
aF0.42809999
aF0.42950001
aF0.43090001
aF0.4323
aF0.4337
aF0.43509999
aF0.43650001
aF0.43779999
aF0.43920001
aF0.44060001
aF0.442
aF0.4434
aF0.44479999
aF0.44620001
aF0.44760001
aF0.449
aF0.45030001
aF0.4517
aF0.4531
aF0.45449999
aF0.45590001
aF0.45730001
aF0.4587
aF0.4601
aF0.46149999
aF0.4628
aF0.46419999
aF0.46560001
aF0.46700001
aF0.4684
aF0.4698
aF0.47119999
aF0.47260001
aF0.47400001
aF0.4754
aF0.47670001
aF0.4781
aF0.4795
aF0.48089999
aF0.48230001
aF0.48370001
aF0.4851
aF0.48649999
aF0.48789999
aF0.4892
aF0.49059999
aF0.49200001
aF0.49340001
aF0.4948
aF0.4962
aF0.49759999
aF0.49900001
aF0.50040001
aF0.50169998
aF0.50309998
aF0.50449997
aF0.50590003
aF0.50730002
aF0.50870001
aF0.51010001
aF0.5115
aF0.51289999
aF0.51419997
aF0.51560003
aF0.51700002
aF0.51840001
aF0.51980001
aF0.5212
aF0.5226
aF0.52399999
aF0.52539998
aF0.52679998
aF0.52810001
aF0.52950001
aF0.5309
aF0.5323
aF0.53369999
aF0.53509998
aF0.53649998
aF0.53789997
aF0.53930002
aF0.5406
aF0.542
aF0.54339999
aF0.54479998
aF0.54619998
aF0.54759997
aF0.54900002
aF0.55040002
aF0.55180001
aF0.55309999
aF0.55449998
aF0.55589998
aF0.55729997
aF0.55870003
aF0.56010002
aF0.56150001
aF0.56290001
aF0.5643
aF0.56559998
aF0.56699997
aF0.56840003
aF0.56980002
aF0.57120001
aF0.57260001
aF0.574
aF0.57539999
aF0.57679999
aF0.57810003
aF0.57950002
aF0.58090001
aF0.58230001
aF0.5837
aF0.5851
aF0.58649999
aF0.58789998
aF0.58929998
aF0.59069997
aF0.59200001
aF0.5934
aF0.5948
aF0.59619999
aF0.59759998
aF0.59899998
aF0.60039997
aF0.60180002
aF0.60320002
aF0.6045
aF0.60589999
aF0.60729998
aF0.60869998
aF0.61009997
aF0.61150002
aF0.61290002
aF0.61430001
aF0.61570001
aF0.61699998
aF0.61839998
aF0.61979997
aF0.62120003
aF0.62260002
aF0.62400001
aF0.62540001
aF0.6268
aF0.62819999
aF0.62949997
aF0.63090003
aF0.63230002
aF0.63370001
aF0.63510001
aF0.6365
aF0.63789999
aF0.63929999
aF0.64069998
aF0.64200002
aF0.64340001
aF0.64480001
aF0.6462
aF0.6476
aF0.64899999
aF0.65039998
aF0.65179998
aF0.65319997
aF0.65460002
aF0.6559
aF0.6573
aF0.65869999
aF0.66009998
aF0.66149998
aF0.66289997
aF0.66430002
aF0.66570002
aF0.66710001
aF0.66839999
aF0.66979998
aF0.67119998
aF0.67259997
aF0.67400002
aF0.67540002
aF0.67680001
aF0.67820001
aF0.6796
aF0.68089998
aF0.68229997
aF0.68370003
aF0.68510002
aF0.68650001
aF0.68790001
aF0.6893
aF0.69069999
aF0.69209999
aF0.69340003
aF0.69480002
aF0.69620001
aF0.69760001
aF0.699
aF0.70039999
aF0.70179999
aF0.70319998
aF0.70459998
aF0.70590001
aF0.70730001
aF0.7087
aF0.7101
aF0.71149999
aF0.71289998
aF0.71429998
aF0.71569997
aF0.71710002
aF0.71850002
aF0.7198
aF0.72119999
aF0.72259998
aF0.72399998
aF0.72539997
aF0.72680002
aF0.72820002
aF0.72960001
aF0.73100001
aF0.73229998
aF0.73369998
aF0.73509997
aF0.73650002
aF0.73790002
aF0.73930001
aF0.74070001
aF0.7421
aF0.74349999
aF0.74479997
aF0.74620003
aF0.74760002
aF0.74900001
aF0.75040001
aF0.7518
aF0.75319999
aF0.75459999
aF0.75599998
aF0.75730002
aF0.75870001
aF0.76010001
aF0.7615
aF0.76289999
aF0.76429999
aF0.76569998
aF0.76709998
aF0.76849997
aF0.76980001
aF0.7712
aF0.7726
aF0.77399999
aF0.77539998
aF0.77679998
aF0.77819997
aF0.77960002
aF0.78100002
aF0.78240001
aF0.78369999
aF0.78509998
aF0.78649998
aF0.78789997
aF0.78930002
aF0.79070002
aF0.79210001
aF0.79350001
aF0.7949
aF0.79619998
aF0.79759997
aF0.79900002
aF0.80040002
aF0.80180001
aF0.80320001
aF0.8046
aF0.80599999
aF0.80739999
aF0.80870003
aF0.81010002
aF0.81150001
aF0.81290001
aF0.8143
aF0.81569999
aF0.81709999
aF0.81849998
aF0.81989998
aF0.82120001
aF0.82260001
aF0.824
aF0.82539999
aF0.82679999
aF0.82819998
aF0.82959998
aF0.83099997
aF0.83240002
aF0.83380002
aF0.8351
aF0.83649999
aF0.83789998
aF0.83929998
aF0.84069997
aF0.84210002
aF0.84350002
aF0.84490001
aF0.84630001
aF0.84759998
aF0.84899998
aF0.85039997
aF0.85180002
aF0.85320002
aF0.85460001
aF0.85600001
aF0.8574
aF0.85879999
aF0.86009997
aF0.86150002
aF0.86290002
aF0.86430001
aF0.86570001
aF0.8671
aF0.86849999
aF0.86989999
aF0.87129998
aF0.87260002
aF0.87400001
aF0.87540001
aF0.8768
aF0.87819999
aF0.87959999
aF0.88099998
aF0.88239998
aF0.88380003
aF0.88520002
aF0.8865
aF0.88789999
aF0.88929999
aF0.89069998
aF0.89209998
aF0.89349997
aF0.89490002
aF0.89630002
aF0.89770001
aF0.89899999
aF0.90039998
aF0.90179998
aF0.90319997
aF0.90460002
aF0.90600002
aF0.90740001
aF0.90880001
aF0.9102
aF0.91149998
aF0.91289997
aF0.91430002
aF0.91570002
aF0.91710001
aF0.91850001
aF0.9199
aF0.92129999
aF0.92269999
aF0.92400002
aF0.92540002
aF0.92680001
aF0.92820001
aF0.9296
aF0.93099999
aF0.93239999
aF0.93379998
aF0.93519998
aF0.93650001
aF0.93790001
aF0.9393
aF0.94069999
aF0.94209999
aF0.94349998
aF0.94489998
aF0.94630003
aF0.94770002
aF0.949
aF0.95039999
aF0.95179999
aF0.95319998
aF0.95459998
aF0.95599997
aF0.95740002
aF0.95880002
aF0.96020001
aF0.96160001
aF0.96289998
aF0.96429998
aF0.96569997
aF0.96710002
aF0.96850002
aF0.96990001
aF0.97130001
aF0.9727
aF0.97409999
aF0.97539997
aF0.97680002
aF0.97820002
aF0.97960001
aF0.98100001
aF0.9824
aF0.98379999
aF0.98519999
aF0.98659998
aF0.98790002
aF0.98930001
aF0.99070001
aF0.9921
aF0.99349999
aF0.99489999
aF0.99629998
aF0.99769998
aF0.99910003
aF1.0003999
aF1.0017999
aF1.0032001
aF1.0046
aF1.006
aF1.0074
aF1.0088
aF1.0102
aF1.0116
aF1.0129
aF1.0143
aF1.0157
aF1.0171
aF1.0185
aF1.0199
aF1.0213
aF1.0227
aF1.0240999
aF1.0255001
aF1.0268
aF1.0282
aF1.0296
aF1.031
aF1.0324
aF1.0338
aF1.0352
aF1.0366
aF1.038
aF1.0393
aF1.0407
aF1.0421
aF1.0434999
aF1.0448999
aF1.0463001
aF1.0477
aF1.0491
aF1.0505
aF1.0519
aF1.0532
aF1.0546
aF1.056
aF1.0574
aF1.0588
aF1.0602
aF1.0616
aF1.063
aF1.0642999
aF1.0657001
aF1.0671
aF1.0685
aF1.0699
aF1.0713
aF1.0727
aF1.0741
aF1.0755
aF1.0768
aF1.0782
aF1.0796
aF1.081
aF1.0824
aF1.0838
aF1.0852
aF1.0865999
aF1.0880001
aF1.0894001
aF1.0907
aF1.0921
aF1.0935
aF1.0949
aF1.0963
aF1.0977
aF1.0991
aF1.1005
aF1.1019
aF1.1032
aF1.1046
aF1.1059999
aF1.1073999
aF1.1088001
aF1.1102
aF1.1116
aF1.113
aF1.1144
aF1.1157
aF1.1171
aF1.1185
aF1.1199
aF1.1213
aF1.1227
aF1.1241
aF1.1255
aF1.1269
aF1.1282001
aF1.1296
aF1.131
aF1.1324
aF1.1338
aF1.1352
aF1.1366
aF1.138
aF1.1394
aF1.1408
aF1.1421
aF1.1435
aF1.1449
aF1.1463
aF1.1477
aF1.1490999
aF1.1505001
aF1.1519001
aF1.1533
aF1.1546
aF1.156
aF1.1574
aF1.1588
aF1.1602
aF1.1616
aF1.163
aF1.1644
aF1.1658
aF1.1671
aF1.1684999
aF1.1698999
aF1.1713001
aF1.1727
aF1.1741
aF1.1755
aF1.1769
aF1.1783
aF1.1796
aF1.181
aF1.1824
aF1.1838
aF1.1852
aF1.1866
aF1.188
aF1.1894
aF1.1908
aF1.1921
aF1.1935
aF1.1949
aF1.1963
aF1.1977
aF1.1991
aF1.2005
aF1.2019
aF1.2033
aF1.2047
aF1.206
aF1.2074
aF1.2088
aF1.2102
aF1.2115999
aF1.2130001
aF1.2144001
aF1.2158
aF1.2172
aF1.2185
aF1.2199
aF1.2213
aF1.2227
aF1.2241
aF1.2255
aF1.2269
aF1.2283
aF1.2297
aF1.2309999
aF1.2323999
aF1.2338001
aF1.2352
aF1.2366
aF1.238
aF1.2394
aF1.2408
aF1.2422
aF1.2435
aF1.2449
aF1.2463
aF1.2477
aF1.2491
aF1.2505
aF1.2519
aF1.2533
aF1.2546999
aF1.256
aF1.2574
aF1.2588
aF1.2602
aF1.2616
aF1.263
aF1.2644
aF1.2658
aF1.2672
aF1.2686
aF1.2699
aF1.2713
aF1.2727
aF1.2740999
aF1.2755001
aF1.2769001
aF1.2783
aF1.2797
aF1.2811
aF1.2824
aF1.2838
aF1.2852
aF1.2866
aF1.288
aF1.2894
aF1.2908
aF1.2922
aF1.2936
aF1.2948999
aF1.2963001
aF1.2977
aF1.2991
asS'beam'
p40
(lp41
F-0.0289
aF-0.0295
aF-0.0288
aF-0.0293
aF-0.0301
aF-0.028
aF-0.028
aF-0.0294
aF-0.0285
aF-0.0285
aF-0.0284
aF-0.029
aF-0.0294
aF-0.0291
aF-0.0284
aF-0.0288
aF-0.0289
aF-0.0288
aF-0.0288
aF-0.03
aF-0.0297
aF-0.0278
aF-0.0303
aF-0.031
aF-0.0284
aF-0.0291
aF-0.0298
aF0.7377
aF1.131
aF1.131
aF1.131
aF1.131
aF1.133
aF1.132
aF1.132
aF1.131
aF1.131
aF1.131
aF1.132
aF1.132
aF1.131
aF1.132
aF1.132
aF1.131
aF1.132
aF1.132
aF1.13
aF1.131
aF1.131
aF1.129
aF1.131
aF1.132
aF1.132
aF1.13
aF1.13
aF1.132
aF1.131
aF1.131
aF1.131
aF1.131
aF1.131
aF1.132
aF1.13
aF1.132
aF1.132
aF1.13
aF1.13
aF1.131
aF1.131
aF1.131
aF1.131
aF1.13
aF1.131
aF1.132
aF1.132
aF1.131
aF1.132
aF1.131
aF1.132
aF1.131
aF1.131
aF1.131
aF1.131
aF1.131
aF1.13
aF1.131
aF1.132
aF1.132
aF1.132
aF1.13
aF1.13
aF1.131
aF1.13
aF1.132
aF1.132
aF1.13
aF1.129
aF1.13
aF1.131
aF1.131
aF1.13
aF1.131
aF1.131
aF1.13
aF1.131
aF1.132
aF1.13
aF1.13
aF1.13
aF1.13
aF1.13
aF1.132
aF1.131
aF1.131
aF1.131
aF1.131
aF1.131
aF1.132
aF1.131
aF1.131
aF1.131
aF1.13
aF1.13
aF1.131
aF1.13
aF1.131
aF1.131
aF1.13
aF1.132
aF1.131
aF1.13
aF1.13
aF1.13
aF1.131
aF1.132
aF1.132
aF1.132
aF1.132
aF1.13
aF1.129
aF1.131
aF1.131
aF1.13
aF1.13
aF1.131
aF1.131
aF1.131
aF1.131
aF1.131
aF1.131
aF1.131
aF1.13
aF1.131
aF1.131
aF1.131
aF1.13
aF1.131
aF1.13
aF1.131
aF1.131
aF1.131
aF1.13
aF1.131
aF1.131
aF1.132
aF1.131
aF1.132
aF1.131
aF1.13
aF1.131
aF1.131
aF1.132
aF1.131
aF1.13
aF1.129
aF1.13
aF1.13
aF1.131
aF1.131
aF1.13
aF1.13
aF1.131
aF1.13
aF1.131
aF1.132
aF1.131
aF1.132
aF1.13
aF1.13
aF1.131
aF1.131
aF1.131
aF1.129
aF1.131
aF1.131
aF1.131
aF1.132
aF1.131
aF1.13
aF1.131
aF1.131
aF1.131
aF1.131
aF1.13
aF1.13
aF1.13
aF1.131
aF1.131
aF1.13
aF1.132
aF1.13
aF1.13
aF1.13
aF1.13
aF1.129
aF1.131
aF1.129
aF1.131
aF1.13
aF1.131
aF1.13
aF1.131
aF1.131
aF1.131
aF1.132
aF1.131
aF1.13
aF1.13
aF1.13
aF1.131
aF1.129
aF1.13
aF1.131
aF1.131
aF1.13
aF1.132
aF1.132
aF1.13
aF1.13
aF1.13
aF1.131
aF1.13
aF1.13
aF1.131
aF1.13
aF1.131
aF1.129
aF1.131
aF1.129
aF1.132
aF1.13
aF1.13
aF1.13
aF1.131
aF1.131
aF1.13
aF1.131
aF1.13
aF1.131
aF1.13
aF1.13
aF1.131
aF1.13
aF1.129
aF1.13
aF1.13
aF1.13
aF1.131
aF1.132
aF1.132
aF1.129
aF1.13
aF1.131
aF1.131
aF1.131
aF1.13
aF1.131
aF1.13
aF1.129
aF1.13
aF1.13
aF1.129
aF1.129
aF1.129
aF1.13
aF1.129
aF1.129
aF1.129
aF1.129
aF1.129
aF1.128
aF1.129
aF1.128
aF1.128
aF1.127
aF1.128
aF1.127
aF1.128
aF1.129
aF1.127
aF1.128
aF1.127
aF1.127
aF1.128
aF1.128
aF1.128
aF1.128
aF1.129
aF1.128
aF1.127
aF1.127
aF1.127
aF1.126
aF1.127
aF1.127
aF1.129
aF1.128
aF1.128
aF1.127
aF1.128
aF1.128
aF1.128
aF1.127
aF1.127
aF1.127
aF1.127
aF1.128
aF1.128
aF1.127
aF1.128
aF1.127
aF1.126
aF1.127
aF1.127
aF1.127
aF1.127
aF1.126
aF1.126
aF1.127
aF1.127
aF1.127
aF1.127
aF1.126
aF1.126
aF1.126
aF1.127
aF1.125
aF1.126
aF1.126
aF1.127
aF1.125
aF1.127
aF1.125
aF1.126
aF1.126
aF1.126
aF1.127
aF1.126
aF1.126
aF1.125
aF1.127
aF1.126
aF1.126
aF1.127
aF1.127
aF1.127
aF1.127
aF1.125
aF1.125
aF1.126
aF1.125
aF1.125
aF1.126
aF1.126
aF1.126
aF1.127
aF1.127
aF1.125
aF1.125
aF1.126
aF1.124
aF1.125
aF1.125
aF1.124
aF1.125
aF1.125
aF1.124
aF1.126
aF1.125
aF1.126
aF1.125
aF1.124
aF1.124
aF1.125
aF1.122
aF1.123
aF1.124
aF1.123
aF1.124
aF1.124
aF1.123
aF1.123
aF1.124
aF1.122
aF1.124
aF1.123
aF1.123
aF1.122
aF1.123
aF1.122
aF1.122
aF1.122
aF1.122
aF1.123
aF1.121
aF1.123
aF1.121
aF1.122
aF1.121
aF1.119
aF1.121
aF1.12
aF1.121
aF1.12
aF1.12
aF1.119
aF1.118
aF1.117
aF1.117
aF1.117
aF1.118
aF1.116
aF1.114
aF1.114
aF1.115
aF1.115
aF1.113
aF1.111
aF1.11
aF1.107
aF1.099
aF1.095
aF1.086
aF1.072
aF1.044
aF1.018
aF0.9933
aF0.9404
aF0.8174
aF0.6926
aF0.5749
aF0.4282
aF0.2756
aF0.1994
aF0.1768
aF0.1634
aF0.1453
aF0.1337
aF0.1196
aF0.0918
aF0.0608
aF0.0476
aF0.0397
aF0.0355
aF0.0321
aF0.0288
aF0.0257
aF0.0249
aF0.0201
aF0.0208
aF0.0192
aF0.0179
aF0.0158
aF0.0152
aF0.0128
aF0.0123
aF0.0127
aF0.0121
aF0.0108
aF0.0113
aF0.0103
aF0.0092
aF0.011
aF0.0109
aF0.0111
aF0.0101
aF0.0105
aF0.0097
aF0.0086
aF0.011
aF0.0115
aF0.0101
aF0.0105
aF0.011
aF0.0103
aF0.0117
aF0.0106
aF0.0111
aF0.0105
aF0.0102
aF0.0099
aF0.0115
aF0.0094
aF0.0087
aF0.0098
aF0.0113
aF0.0104
aF0.0116
aF0.0101
aF0.0108
aF0.0111
aF0.0106
aF0.0106
aF0.011
aF0.0107
aF0.0106
aF0.0103
aF0.0115
aF0.0101
aF0.0111
aF0.0103
aF0.0108
aF0.0096
aF0.0109
aF0.0105
aF0.0108
aF0.0099
aF0.0107
aF0.0103
aF0.0101
aF0.0114
aF0.011
aF0.0111
aF0.0099
aF0.0104
aF0.0102
aF0.01
aF0.01
aF0.0096
aF0.0094
aF0.0099
aF0.0095
aF0.0104
aF0.0118
aF0.0109
aF0.0118
aF0.0095
aF0.011
aF0.0113
aF0.011
aF0.0098
aF0.0101
aF0.0093
aF0.0104
aF0.0111
aF0.0106
aF0.0104
aF0.0109
aF0.0099
aF0.011
aF0.0111
aF0.0108
aF0.0099
aF0.0096
aF0.0095
aF0.0094
aF0.0102
aF0.01
aF0.0109
aF0.0108
aF0.0097
aF0.0105
aF0.0112
aF0.0115
aF0.0108
aF0.0085
aF0.01
aF-0.0172
aF-0.0288
aF-0.028
aF-0.028
aF-0.0294
aF-0.0291
aF-0.0276
aF-0.0288
aF-0.0287
aF-0.029
aF-0.0289
aF-0.029
aF-0.028
aF-0.0288
aF-0.0287
aF-0.0275
aF-0.0286
aF-0.0292
aF-0.0282
aF-0.0288
aF-0.0281
aF-0.0292
aF-0.0284
aF-0.0286
aF-0.0282
aF-0.0297
aF-0.0286
aF-0.0289
aF-0.0287
aF-0.0285
aF-0.0284
aF-0.0276
aF-0.0279
aF-0.0295
aF-0.0292
aF-0.0295
aF-0.0291
aF-0.0272
aF-0.0283
aF-0.0271
aF-0.0284
aF-0.0289
aF-0.0282
aF-0.0289
aF-0.0277
aF-0.028
aF-0.028
aF-0.0299
aF-0.0299
aF-0.0286
aF-0.0282
aF-0.0284
aF-0.0274
aF-0.0288
aF-0.0284
aF-0.0276
aF-0.0285
aF-0.0281
aF-0.028
aF-0.0284
aF-0.0281
aF-0.0278
aF-0.0282
aF-0.0286
aF-0.0295
aF-0.029
aF-0.0301
aF-0.0283
aF-0.0283
aF-0.029
aF-0.029
aF-0.0286
aF-0.0288
aF-0.0288
aF-0.0273
aF-0.0282
aF-0.0286
aF-0.0289
aF-0.0288
aF-0.0282
aF-0.0273
aF-0.029
aF-0.0289
aF-0.0279
aF-0.0275
aF-0.0292
aF-0.0282
aF-0.0286
aF-0.0284
aF-0.0289
aF-0.0274
aF-0.0279
aF-0.0278
aF-0.0288
aF-0.0292
aF-0.0281
aF-0.0296
aF-0.0286
aF-0.0272
aF-0.0271
aF-0.0288
aF-0.0295
aF-0.0288
aF-0.0282
aF-0.0292
aF-0.0288
aF-0.0295
aF-0.0295
aF-0.0277
aF-0.0271
aF-0.0268
aF-0.0276
aF-0.0278
aF-0.0289
aF-0.028
aF-0.0277
aF-0.0277
aF-0.0287
aF-0.0283
aF-0.0288
aF-0.0287
aF-0.0287
aF-0.0279
aF-0.027
aF-0.0287
aF-0.028
aF-0.0287
aF-0.0276
aF-0.0283
aF-0.0276
aF-0.028
aF-0.028
aF-0.028
aF-0.0286
aF-0.0285
aF-0.0269
aF-0.0278
aF-0.0282
aF-0.0281
aF-0.0286
aF-0.0279
aF-0.0279
aF-0.0287
aF-0.0286
aF-0.0283
aF-0.0286
aF-0.0277
aF-0.0285
aF-0.0282
aF-0.0298
aF-0.0288
aF-0.0279
aF-0.028
aF-0.0277
aF-0.0286
aF-0.0296
aF-0.0288
aF-0.0277
aF-0.0283
aF-0.0281
aF-0.0294
aF-0.0291
aF-0.0286
aF-0.0288
aF-0.0274
aF-0.0282
aF-0.0292
aF-0.0288
aF-0.0294
aF-0.0279
aF-0.0271
aF-0.0284
aF-0.0287
aF-0.0279
aF-0.0286
aF-0.0297
aF-0.0287
aF-0.029
aF-0.0276
aF-0.0294
aF-0.0285
aF-0.0288
aF-0.0278
aF-0.0284
aF-0.0291
aF-0.0285
aF-0.0283
aF-0.0276
aF-0.0287
aF-0.029
aF-0.0278
aF-0.0278
aF-0.0284
aF-0.0284
aF-0.0289
aF-0.0276
aF-0.0276
aF-0.0287
aF-0.0289
aF-0.0282
aF-0.0277
aF-0.0293
aF-0.0281
aF-0.0305
aF-0.0295
aF-0.0283
aF-0.0291
aF-0.029
aF-0.0274
aF-0.03
aF-0.0289
aF-0.0301
aF-0.0279
aF-0.0282
aF-0.0283
aF-0.0294
aF-0.0288
aF-0.028
aF-0.0299
aF-0.0277
aF-0.028
aF-0.0276
aF-0.0299
aF-0.028
aF-0.0272
aF-0.0298
aF-0.03
aF-0.0288
aF-0.0278
aF-0.0294
aF-0.028
aF-0.0287
aF-0.029
aF-0.029
aF-0.0281
aF-0.0279
aF-0.0293
aF-0.0297
aF-0.0287
aF-0.029
aF-0.0294
aF-0.0298
aF-0.0279
aF-0.028
aF-0.0285
aF-0.0279
aF-0.0288
aF-0.0278
aF-0.0289
aF-0.0292
aF-0.0295
aF-0.0284
aF-0.0299
aF-0.0299
aF-0.0286
aF-0.0273
aF-0.0294
aF-0.0278
aF-0.0295
aF-0.0286
aF-0.0279
aF-0.0289
aF-0.0302
aF-0.0288
aF-0.0294
aF-0.0274
aF-0.0277
aF-0.0283
aF-0.0287
aF-0.0284
aF-0.0286
aF-0.03
aF-0.0292
aF-0.029
aF-0.0289
aF-0.0302
aF-0.0293
aF-0.0289
aF-0.0279
aF-0.0299
aF-0.0281
aF-0.0292
aF-0.0298
aF-0.0289
aF-0.0286
aF-0.0302
aF-0.0299
aF-0.03
aF-0.0284
aF-0.03
aF-0.0279
aF-0.0278
aF-0.0277
aF-0.0296
aF-0.0273
aF-0.0288
aF-0.0286
aF-0.0286
aF-0.028
aF-0.0289
aF-0.029
aF-0.0293
aF-0.0278
aF-0.0286
aF-0.0278
aF-0.0282
aF-0.0275
aF-0.028
aF-0.0273
aF-0.0289
aF-0.0288
aF-0.0284
aF-0.0283
aF-0.0289
aF-0.0284
aF-0.0272
aF-0.0274
aF-0.0285
aF-0.0291
aF-0.0296
aF-0.0277
aF-0.0286
aF-0.029
aF-0.0301
aF-0.029
aF-0.0291
aF-0.028
aF-0.027
aF-0.0278
aF-0.0285
aF-0.0275
aF-0.0283
aF-0.0289
aF-0.0295
aF-0.0294
aF-0.0294
aF-0.0294
aF-0.0298
aF-0.0277
aF-0.0292
aF-0.0288
aF-0.03
aF-0.029
aF-0.0292
aF-0.028
aF-0.0287
aF-0.0289
aF-0.0294
aF-0.0301
aF-0.0286
aF-0.029
aF-0.028
aF-0.0288
aF-0.029
aF-0.0285
aF-0.0292
aF-0.0288
aF-0.0284
aF-0.0293
aF-0.0286
asS'htune'
p42
(lp43
F25.469999243
aF25.309999396
assg11
(g15
S'\x03\x00\x00\x00\x00\x00\x00\x00'
p44
tp45
Rp46
(dp47
S'i'
p48
I3
sS'vtune'
p49
(lp50
F24.450000784
aF24.450000784
asS'htune'
p51
(lp52
F25.469999243
aF25.309999396
asS'time'
p53
(lp54
F0.0008
aF0.0022
aF0.0036
aF0.005
aF0.0063
aF0.0077
aF0.0091
aF0.0105
aF0.0119
aF0.0133
aF0.0147
aF0.0161
aF0.0175
aF0.0188
aF0.0202
aF0.0216
aF0.023
aF0.0244
aF0.0258
aF0.0272
aF0.0286
aF0.03
aF0.0313
aF0.0327
aF0.0341
aF0.0355
aF0.0369
aF0.0383
aF0.0397
aF0.0411
aF0.0425
aF0.0438
aF0.0452
aF0.0466
aF0.048
aF0.0494
aF0.0508
aF0.0522
aF0.0536
aF0.055
aF0.0564
aF0.0577
aF0.0591
aF0.0605
aF0.0619
aF0.0633
aF0.0647
aF0.0661
aF0.0675
aF0.0689
aF0.0702
aF0.0716
aF0.073
aF0.0744
aF0.0758
aF0.0772
aF0.0786
aF0.08
aF0.0814
aF0.0827
aF0.0841
aF0.0855
aF0.0869
aF0.0883
aF0.0897
aF0.0911
aF0.0925
aF0.0939
aF0.0952
aF0.0966
aF0.098
aF0.0994
aF0.1008
aF0.1022
aF0.1036
aF0.105
aF0.1064
aF0.1077
aF0.1091
aF0.1105
aF0.1119
aF0.1133
aF0.1147
aF0.1161
aF0.1175
aF0.1189
aF0.1203
aF0.1216
aF0.123
aF0.1244
aF0.1258
aF0.12720001
aF0.1286
aF0.13
aF0.1314
aF0.1328
aF0.13410001
aF0.1355
aF0.13689999
aF0.1383
aF0.1397
aF0.1411
aF0.1425
aF0.14390001
aF0.1453
aF0.14659999
aF0.148
aF0.1494
aF0.1508
aF0.1522
aF0.15360001
aF0.155
aF0.1564
aF0.1578
aF0.1591
aF0.1605
aF0.1619
aF0.16329999
aF0.1647
aF0.1661
aF0.1675
aF0.1689
aF0.17030001
aF0.1716
aF0.17299999
aF0.1744
aF0.1758
aF0.1772
aF0.1786
aF0.18000001
aF0.1814
aF0.18279999
aF0.1842
aF0.1855
aF0.1869
aF0.1883
aF0.18970001
aF0.1911
aF0.1925
aF0.1939
aF0.1953
aF0.19670001
aF0.198
aF0.19939999
aF0.2008
aF0.2022
aF0.2036
aF0.205
aF0.20640001
aF0.2078
aF0.20919999
aF0.2105
aF0.2119
aF0.2133
aF0.2147
aF0.21610001
aF0.2175
aF0.2189
aF0.2203
aF0.2217
aF0.223
aF0.2244
aF0.22579999
aF0.2272
aF0.2286
aF0.23
aF0.2314
aF0.23280001
aF0.2342
aF0.23549999
aF0.2369
aF0.2383
aF0.2397
aF0.2411
aF0.24250001
aF0.2439
aF0.24529999
aF0.2467
aF0.2481
aF0.2494
aF0.25080001
aF0.25220001
aF0.2536
aF0.255
aF0.25639999
aF0.25780001
aF0.25920001
aF0.2606
aF0.26190001
aF0.2633
aF0.2647
aF0.26609999
aF0.26750001
aF0.26890001
aF0.2703
aF0.27169999
aF0.27309999
aF0.2744
aF0.27579999
aF0.27720001
aF0.27860001
aF0.28
aF0.2814
aF0.28279999
aF0.28420001
aF0.28560001
aF0.28690001
aF0.28830001
aF0.2897
aF0.2911
aF0.29249999
aF0.29390001
aF0.29530001
aF0.2967
aF0.29809999
aF0.2994
aF0.3008
aF0.30219999
aF0.30360001
aF0.30500001
aF0.3064
aF0.30779999
aF0.30919999
aF0.31060001
aF0.31200001
aF0.31330001
aF0.31470001
aF0.3161
aF0.3175
aF0.31889999
aF0.32030001
aF0.32170001
aF0.3231
aF0.32449999
aF0.3258
aF0.3272
aF0.32859999
aF0.33000001
aF0.33140001
aF0.3328
aF0.33419999
aF0.33559999
aF0.33700001
aF0.33829999
aF0.33970001
aF0.34110001
aF0.3425
aF0.3439
aF0.34529999
aF0.34670001
aF0.34810001
aF0.3495
aF0.35080001
aF0.3522
aF0.3536
aF0.35499999
aF0.35640001
aF0.35780001
aF0.3592
aF0.36059999
aF0.36199999
aF0.36340001
aF0.36469999
aF0.36610001
aF0.36750001
aF0.3689
aF0.37029999
aF0.37169999
aF0.37310001
aF0.37450001
aF0.3759
aF0.37720001
aF0.3786
aF0.38
aF0.38139999
aF0.38280001
aF0.38420001
aF0.3856
aF0.38699999
aF0.38839999
aF0.3897
aF0.39109999
aF0.39250001
aF0.39390001
aF0.3953
aF0.39669999
aF0.39809999
aF0.39950001
aF0.40090001
aF0.40220001
aF0.40360001
aF0.405
aF0.4064
aF0.40779999
aF0.40920001
aF0.41060001
aF0.412
aF0.41339999
aF0.4147
aF0.4161
aF0.41749999
aF0.41890001
aF0.42030001
aF0.4217
aF0.42309999
aF0.42449999
aF0.42590001
aF0.42730001
aF0.42860001
aF0.43000001
aF0.4314
aF0.43279999
aF0.43419999
aF0.43560001
aF0.43700001
aF0.4384
aF0.43979999
aF0.4411
aF0.4425
aF0.44389999
aF0.44530001
aF0.44670001
aF0.4481
aF0.44949999
aF0.45089999
aF0.45230001
aF0.45359999
aF0.45500001
aF0.45640001
aF0.4578
aF0.45919999
aF0.46059999
aF0.46200001
aF0.46340001
aF0.4648
aF0.46610001
aF0.4675
aF0.4689
aF0.47029999
aF0.47170001
aF0.47310001
aF0.4745
aF0.47589999
aF0.47729999
aF0.4786
aF0.47999999
aF0.48140001
aF0.48280001
aF0.4842
aF0.48559999
aF0.48699999
aF0.48840001
aF0.48980001
aF0.4912
aF0.49250001
aF0.4939
aF0.49529999
aF0.49669999
aF0.49810001
aF0.49950001
aF0.50089997
aF0.50230002
aF0.50370002
aF0.505
aF0.50639999
aF0.50779998
aF0.50919998
aF0.51059997
aF0.51200002
aF0.51340002
aF0.51480001
aF0.51620001
aF0.51749998
aF0.51889998
aF0.52029997
aF0.52170002
aF0.52310002
aF0.52450001
aF0.52590001
aF0.5273
aF0.52869999
aF0.52999997
aF0.53140002
aF0.53280002
aF0.53420001
aF0.53560001
aF0.537
aF0.53839999
aF0.53979999
aF0.54119998
aF0.54250002
aF0.54390001
aF0.54530001
aF0.5467
aF0.54809999
aF0.54949999
aF0.55089998
aF0.55229998
aF0.55369997
aF0.55510002
aF0.5564
aF0.55779999
aF0.55919999
aF0.56059998
aF0.56199998
aF0.56339997
aF0.56480002
aF0.56620002
aF0.56760001
aF0.56889999
aF0.57029998
aF0.57169998
aF0.57309997
aF0.57450002
aF0.57590002
aF0.57730001
aF0.57870001
aF0.5801
aF0.58139998
aF0.58279997
aF0.58420002
aF0.58560002
aF0.58700001
aF0.58840001
aF0.5898
aF0.59119999
aF0.59259999
aF0.59399998
aF0.59530002
aF0.59670001
aF0.59810001
aF0.5995
aF0.60089999
aF0.60229999
aF0.60369998
aF0.60509998
aF0.60640001
aF0.60780001
aF0.6092
aF0.61059999
aF0.61199999
aF0.61339998
aF0.61479998
aF0.61619997
aF0.61760002
aF0.61900002
aF0.62029999
aF0.62169999
aF0.62309998
aF0.62449998
aF0.62589997
aF0.62730002
aF0.62870002
aF0.63010001
aF0.63150001
aF0.63279998
aF0.63419998
aF0.63559997
aF0.63700002
aF0.63840002
aF0.63980001
aF0.64120001
aF0.6426
aF0.64399999
aF0.64529997
aF0.64670002
aF0.64810002
aF0.64950001
aF0.65090001
aF0.6523
aF0.65369999
aF0.65509999
aF0.65649998
aF0.65780002
aF0.65920001
aF0.66060001
aF0.662
aF0.66339999
aF0.66479999
aF0.66619998
aF0.66759998
aF0.66900003
aF0.67040002
aF0.6717
aF0.67309999
aF0.67449999
aF0.67589998
aF0.67729998
aF0.67869997
aF0.68010002
aF0.68150002
aF0.68290001
aF0.68419999
aF0.68559998
aF0.68699998
aF0.68839997
aF0.68980002
aF0.69120002
aF0.69260001
aF0.69400001
aF0.6954
aF0.69669998
aF0.69809997
aF0.69950002
aF0.70090002
aF0.70230001
aF0.70370001
aF0.7051
aF0.70649999
aF0.70789999
aF0.70920002
aF0.71060002
aF0.71200001
aF0.71340001
aF0.7148
aF0.71619999
aF0.71759999
aF0.71899998
aF0.72039998
aF0.72170001
aF0.72310001
aF0.7245
aF0.72589999
aF0.72729999
aF0.72869998
aF0.73009998
aF0.73150003
aF0.73290002
aF0.73430002
aF0.73559999
aF0.73699999
aF0.73839998
aF0.73979998
aF0.74119997
aF0.74260002
aF0.74400002
aF0.74540001
aF0.74680001
aF0.74809998
aF0.74949998
aF0.75089997
aF0.75230002
aF0.75370002
aF0.75510001
aF0.75650001
aF0.7579
aF0.75929999
aF0.76059997
aF0.76200002
aF0.76340002
aF0.76480001
aF0.76620001
aF0.7676
aF0.76899999
aF0.77039999
aF0.77179998
aF0.77310002
aF0.77450001
aF0.77590001
aF0.7773
aF0.77869999
aF0.78009999
aF0.78149998
aF0.78289998
aF0.78430003
aF0.78570002
aF0.787
aF0.78839999
aF0.78979999
aF0.79119998
aF0.79259998
aF0.79400003
aF0.79540002
aF0.79680002
aF0.79820001
aF0.79949999
aF0.80089998
aF0.80229998
aF0.80369997
aF0.80510002
aF0.80650002
aF0.80790001
aF0.80930001
aF0.8107
aF0.81199998
aF0.81339997
aF0.81480002
aF0.81620002
aF0.81760001
aF0.81900001
aF0.8204
aF0.82179999
aF0.82319999
aF0.82450002
aF0.82590002
aF0.82730001
aF0.82870001
aF0.8301
aF0.83149999
aF0.83289999
aF0.83429998
aF0.83569998
aF0.83700001
aF0.83840001
aF0.8398
aF0.84119999
aF0.84259999
aF0.84399998
aF0.84539998
aF0.84680003
aF0.84820002
aF0.8495
aF0.85089999
aF0.85229999
aF0.85369998
aF0.85509998
aF0.85650003
aF0.85790002
aF0.85930002
aF0.86070001
aF0.86210001
aF0.86339998
aF0.86479998
aF0.86619997
aF0.86760002
aF0.86900002
aF0.87040001
aF0.87180001
aF0.8732
aF0.87459999
aF0.87589997
aF0.87730002
aF0.87870002
aF0.88010001
aF0.88150001
aF0.8829
aF0.88429999
aF0.88569999
aF0.88709998
aF0.88840002
aF0.88980001
aF0.89120001
aF0.8926
aF0.89399999
aF0.89539999
aF0.89679998
aF0.89819998
aF0.89960003
aF0.90090001
aF0.9023
aF0.90369999
aF0.90509999
aF0.90649998
aF0.90789998
aF0.90930003
aF0.91070002
aF0.91210002
aF0.91339999
aF0.91479999
aF0.91619998
aF0.91759998
aF0.91900003
aF0.92040002
aF0.92180002
aF0.92320001
aF0.92460001
aF0.926
aF0.92729998
aF0.92869997
aF0.93010002
aF0.93150002
aF0.93290001
aF0.93430001
aF0.9357
aF0.93709999
aF0.93849999
aF0.93980002
aF0.94120002
aF0.94260001
aF0.94400001
aF0.9454
aF0.94679999
aF0.94819999
aF0.94959998
aF0.95099998
aF0.95230001
aF0.95370001
aF0.9551
aF0.95649999
aF0.95789999
aF0.95929998
aF0.96069998
aF0.96210003
aF0.96350002
aF0.9648
aF0.96619999
aF0.96759999
aF0.96899998
aF0.97039998
aF0.97180003
aF0.97320002
aF0.97460002
aF0.97600001
aF0.9774
aF0.97869998
aF0.98009998
aF0.98150003
aF0.98290002
aF0.98430002
aF0.98570001
aF0.98710001
aF0.9885
aF0.98989999
aF0.99119997
aF0.99260002
aF0.99400002
aF0.99540001
aF0.99680001
aF0.9982
aF0.99959999
aF1.001
aF1.0024
aF1.0037
aF1.0051
aF1.0065
aF1.0079
aF1.0093
aF1.0107
aF1.0121
aF1.0135
aF1.0149
aF1.0161999
aF1.0176001
aF1.0190001
aF1.0204
aF1.0218
aF1.0232
aF1.0246
aF1.026
aF1.0274
aF1.0287
aF1.0301
aF1.0315
aF1.0329
aF1.0343
aF1.0357
aF1.0371
aF1.0385
aF1.0398999
aF1.0413001
aF1.0426
aF1.044
aF1.0454
aF1.0468
aF1.0482
aF1.0496
aF1.051
aF1.0524
aF1.0538
aF1.0551
aF1.0565
aF1.0579
aF1.0592999
aF1.0607001
aF1.0621001
aF1.0635
aF1.0649
aF1.0663
aF1.0676
aF1.069
aF1.0704
aF1.0718
aF1.0732
aF1.0746
aF1.076
aF1.0774
aF1.0788
aF1.0801001
aF1.0815001
aF1.0829
aF1.0843
aF1.0857
aF1.0871
aF1.0885
aF1.0899
aF1.0913
aF1.0926
aF1.094
aF1.0954
aF1.0968
aF1.0982
aF1.0996
aF1.101
aF1.1023999
aF1.1038001
aF1.1052001
aF1.1065
aF1.1079
aF1.1093
aF1.1107
aF1.1121
aF1.1135
aF1.1149
aF1.1163
aF1.1177
aF1.119
aF1.1204
aF1.1217999
aF1.1232001
aF1.1246001
aF1.126
aF1.1274
aF1.1288
aF1.1302
aF1.1315
aF1.1329
aF1.1343
aF1.1357
aF1.1371
aF1.1385
aF1.1399
aF1.1413
aF1.1427
aF1.1440001
aF1.1454
aF1.1468
aF1.1482
aF1.1496
aF1.151
aF1.1524
aF1.1538
aF1.1552
aF1.1565
aF1.1579
aF1.1593
aF1.1607
aF1.1621
aF1.1635
aF1.1648999
aF1.1663001
aF1.1677001
aF1.1691
aF1.1704
aF1.1718
aF1.1732
aF1.1746
aF1.176
aF1.1774
aF1.1788
aF1.1802
aF1.1816
aF1.1829
aF1.1842999
aF1.1857001
aF1.1871001
aF1.1885
aF1.1899
aF1.1913
aF1.1927
aF1.1941
aF1.1954
aF1.1968
aF1.1982
aF1.1996
aF1.201
aF1.2024
aF1.2038
aF1.2052
aF1.2066
aF1.2079
aF1.2093
aF1.2107
aF1.2121
aF1.2135
aF1.2149
aF1.2163
aF1.2177
aF1.2191
aF1.2204
aF1.2218
aF1.2232
aF1.2246
aF1.226
aF1.2273999
aF1.2288001
aF1.2302001
aF1.2316
aF1.233
aF1.2343
aF1.2357
aF1.2371
aF1.2385
aF1.2399
aF1.2413
aF1.2427
aF1.2441
aF1.2455
aF1.2467999
aF1.2482001
aF1.2496001
aF1.251
aF1.2524
aF1.2538
aF1.2552
aF1.2566
aF1.258
aF1.2593
aF1.2607
aF1.2621
aF1.2635
aF1.2649
aF1.2663
aF1.2677
aF1.2691
aF1.2704999
aF1.2718
aF1.2732
aF1.2746
aF1.276
aF1.2774
aF1.2788
aF1.2802
aF1.2816
aF1.283
aF1.2844
aF1.2857
aF1.2871
aF1.2885
aF1.2898999
aF1.2913001
aF1.2927001
aF1.2941
aF1.2955
aF1.2969
aF1.2982
aF1.2996
asS'beam'
p55
(lp56
F-0.0298
aF-0.0294
aF-0.0283
aF-0.0292
aF-0.0287
aF-0.0305
aF-0.029
aF-0.0296
aF-0.0281
aF-0.0298
aF-0.0293
aF-0.0294
aF-0.0283
aF-0.0307
aF-0.028
aF-0.0288
aF-0.0287
aF-0.0292
aF-0.0292
aF-0.0293
aF-0.029
aF-0.0299
aF-0.0294
aF-0.0297
aF-0.0296
aF-0.0301
aF0.1212
aF1.116
aF1.146
aF1.144
aF1.145
aF1.145
aF1.147
aF1.144
aF1.145
aF1.145
aF1.145
aF1.145
aF1.146
aF1.145
aF1.145
aF1.145
aF1.146
aF1.146
aF1.145
aF1.145
aF1.145
aF1.144
aF1.144
aF1.145
aF1.145
aF1.145
aF1.145
aF1.144
aF1.146
aF1.144
aF1.145
aF1.146
aF1.144
aF1.144
aF1.144
aF1.145
aF1.145
aF1.146
aF1.145
aF1.145
aF1.144
aF1.145
aF1.145
aF1.144
aF1.143
aF1.146
aF1.144
aF1.145
aF1.146
aF1.145
aF1.145
aF1.144
aF1.146
aF1.146
aF1.145
aF1.144
aF1.144
aF1.145
aF1.145
aF1.144
aF1.146
aF1.143
aF1.144
aF1.143
aF1.144
aF1.143
aF1.144
aF1.144
aF1.144
aF1.143
aF1.143
aF1.144
aF1.145
aF1.144
aF1.144
aF1.143
aF1.143
aF1.145
aF1.144
aF1.144
aF1.144
aF1.142
aF1.145
aF1.145
aF1.144
aF1.144
aF1.144
aF1.144
aF1.144
aF1.144
aF1.144
aF1.144
aF1.144
aF1.143
aF1.144
aF1.146
aF1.145
aF1.146
aF1.144
aF1.144
aF1.145
aF1.145
aF1.145
aF1.145
aF1.144
aF1.143
aF1.144
aF1.144
aF1.144
aF1.145
aF1.146
aF1.142
aF1.145
aF1.145
aF1.146
aF1.144
aF1.143
aF1.143
aF1.144
aF1.145
aF1.146
aF1.144
aF1.145
aF1.145
aF1.145
aF1.144
aF1.145
aF1.144
aF1.144
aF1.144
aF1.144
aF1.144
aF1.145
aF1.146
aF1.145
aF1.143
aF1.144
aF1.145
aF1.145
aF1.144
aF1.143
aF1.143
aF1.144
aF1.145
aF1.145
aF1.144
aF1.145
aF1.145
aF1.145
aF1.145
aF1.144
aF1.145
aF1.145
aF1.145
aF1.143
aF1.145
aF1.145
aF1.146
aF1.145
aF1.145
aF1.144
aF1.145
aF1.144
aF1.144
aF1.144
aF1.144
aF1.143
aF1.144
aF1.146
aF1.145
aF1.144
aF1.145
aF1.144
aF1.144
aF1.144
aF1.143
aF1.142
aF1.143
aF1.143
aF1.145
aF1.145
aF1.144
aF1.143
aF1.144
aF1.145
aF1.144
aF1.144
aF1.144
aF1.144
aF1.144
aF1.145
aF1.144
aF1.145
aF1.144
aF1.144
aF1.144
aF1.145
aF1.145
aF1.146
aF1.144
aF1.144
aF1.144
aF1.144
aF1.144
aF1.144
aF1.145
aF1.145
aF1.144
aF1.144
aF1.144
aF1.146
aF1.144
aF1.144
aF1.143
aF1.144
aF1.144
aF1.145
aF1.144
aF1.145
aF1.146
aF1.145
aF1.145
aF1.145
aF1.145
aF1.145
aF1.143
aF1.146
aF1.144
aF1.144
aF1.144
aF1.144
aF1.145
aF1.145
aF1.145
aF1.145
aF1.144
aF1.145
aF1.144
aF1.145
aF1.145
aF1.145
aF1.144
aF1.144
aF1.144
aF1.144
aF1.143
aF1.143
aF1.143
aF1.143
aF1.144
aF1.145
aF1.143
aF1.144
aF1.143
aF1.144
aF1.143
aF1.143
aF1.143
aF1.143
aF1.143
aF1.143
aF1.143
aF1.142
aF1.143
aF1.143
aF1.143
aF1.143
aF1.141
aF1.143
aF1.142
aF1.143
aF1.141
aF1.141
aF1.14
aF1.141
aF1.142
aF1.141
aF1.142
aF1.143
aF1.143
aF1.14
aF1.141
aF1.142
aF1.141
aF1.141
aF1.141
aF1.142
aF1.142
aF1.142
aF1.142
aF1.142
aF1.141
aF1.142
aF1.142
aF1.143
aF1.141
aF1.14
aF1.141
aF1.141
aF1.141
aF1.142
aF1.141
aF1.141
aF1.14
aF1.142
aF1.142
aF1.143
aF1.141
aF1.141
aF1.141
aF1.14
aF1.141
aF1.141
aF1.142
aF1.141
aF1.14
aF1.14
aF1.141
aF1.141
aF1.14
aF1.14
aF1.139
aF1.14
aF1.139
aF1.14
aF1.141
aF1.141
aF1.14
aF1.14
aF1.141
aF1.141
aF1.139
aF1.14
aF1.139
aF1.141
aF1.139
aF1.14
aF1.139
aF1.141
aF1.14
aF1.138
aF1.139
aF1.141
aF1.139
aF1.139
aF1.139
aF1.139
aF1.14
aF1.139
aF1.14
aF1.141
aF1.139
aF1.139
aF1.14
aF1.139
aF1.139
aF1.138
aF1.138
aF1.139
aF1.138
aF1.139
aF1.139
aF1.138
aF1.139
aF1.138
aF1.139
aF1.14
aF1.138
aF1.138
aF1.138
aF1.137
aF1.138
aF1.139
aF1.138
aF1.139
aF1.137
aF1.137
aF1.137
aF1.137
aF1.136
aF1.137
aF1.137
aF1.136
aF1.137
aF1.136
aF1.137
aF1.137
aF1.137
aF1.136
aF1.136
aF1.136
aF1.136
aF1.134
aF1.135
aF1.134
aF1.134
aF1.134
aF1.134
aF1.135
aF1.133
aF1.132
aF1.132
aF1.132
aF1.131
aF1.131
aF1.13
aF1.128
aF1.13
aF1.129
aF1.128
aF1.128
aF1.126
aF1.122
aF1.114
aF1.106
aF1.098
aF1.078
aF1.048
aF1.026
aF0.9979
aF0.9302
aF0.7927
aF0.6538
aF0.505
aF0.3468
aF0.2282
aF0.1812
aF0.1634
aF0.1482
aF0.1341
aF0.1216
aF0.107
aF0.0815
aF0.0586
aF0.0474
aF0.0413
aF0.0365
aF0.0319
aF0.0283
aF0.0253
aF0.023
aF0.0206
aF0.0198
aF0.0168
aF0.0169
aF0.0167
aF0.0137
aF0.0122
aF0.0129
aF0.0129
aF0.0125
aF0.0108
aF0.0106
aF0.0101
aF0.0094
aF0.01
aF0.0115
aF0.0112
aF0.0106
aF0.0105
aF0.01
aF0.0095
aF0.0104
aF0.01
aF0.0103
aF0.0084
aF0.0096
aF0.0088
aF0.0102
aF0.0096
aF0.0094
aF0.0093
aF0.0115
aF0.0099
aF0.0106
aF0.0095
aF0.0105
aF0.0099
aF0.0093
aF0.0096
aF0.0106
aF0.0107
aF0.0097
aF0.0105
aF0.0103
aF0.0108
aF0.0098
aF0.0099
aF0.0109
aF0.0096
aF0.0096
aF0.0094
aF0.0117
aF0.0111
aF0.0097
aF0.0099
aF0.0088
aF0.0096
aF0.0102
aF0.0098
aF0.0092
aF0.0085
aF0.0093
aF0.0093
aF0.0099
aF0.01
aF0.0099
aF0.0107
aF0.0109
aF0.0111
aF0.0096
aF0.0103
aF0.0096
aF0.0086
aF0.0096
aF0.0103
aF0.0094
aF0.011
aF0.0082
aF0.0098
aF0.0107
aF0.0092
aF0.0117
aF0.0092
aF0.0094
aF0.0098
aF0.0096
aF0.0092
aF0.0115
aF0.0088
aF0.0096
aF0.0097
aF0.01
aF0.0101
aF0.011
aF0.0104
aF0.0089
aF0.0084
aF0.01
aF0.0092
aF0.0091
aF0.0112
aF0.01
aF0.0098
aF0.0105
aF0.0109
aF0.0089
aF0.0092
aF0.0105
aF0.0064
aF-0.028
aF-0.0297
aF-0.0301
aF-0.0288
aF-0.0293
aF-0.0297
aF-0.0281
aF-0.0302
aF-0.0285
aF-0.0296
aF-0.0292
aF-0.03
aF-0.0301
aF-0.0296
aF-0.0286
aF-0.028
aF-0.0297
aF-0.0293
aF-0.0286
aF-0.0282
aF-0.0288
aF-0.0296
aF-0.029
aF-0.0292
aF-0.0293
aF-0.0287
aF-0.0285
aF-0.029
aF-0.0292
aF-0.0307
aF-0.0282
aF-0.0289
aF-0.0289
aF-0.0296
aF-0.0289
aF-0.0295
aF-0.0288
aF-0.0298
aF-0.0288
aF-0.0284
aF-0.0278
aF-0.0291
aF-0.0295
aF-0.0283
aF-0.0287
aF-0.0292
aF-0.0286
aF-0.0302
aF-0.0288
aF-0.0278
aF-0.0286
aF-0.0294
aF-0.0285
aF-0.0301
aF-0.0286
aF-0.0291
aF-0.0288
aF-0.0284
aF-0.0294
aF-0.0293
aF-0.0299
aF-0.029
aF-0.0282
aF-0.0283
aF-0.0295
aF-0.029
aF-0.0295
aF-0.0298
aF-0.0286
aF-0.0308
aF-0.0293
aF-0.0286
aF-0.0305
aF-0.0279
aF-0.0283
aF-0.028
aF-0.0288
aF-0.0287
aF-0.0292
aF-0.0283
aF-0.0289
aF-0.0285
aF-0.029
aF-0.0295
aF-0.029
aF-0.0288
aF-0.0298
aF-0.0289
aF-0.0297
aF-0.0289
aF-0.0293
aF-0.0294
aF-0.029
aF-0.0287
aF-0.0288
aF-0.0289
aF-0.0299
aF-0.0287
aF-0.0296
aF-0.0291
aF-0.0291
aF-0.0284
aF-0.0287
aF-0.0285
aF-0.0281
aF-0.0284
aF-0.0291
aF-0.0289
aF-0.0288
aF-0.0293
aF-0.0286
aF-0.0291
aF-0.0299
aF-0.0291
aF-0.0303
aF-0.029
aF-0.0281
aF-0.0285
aF-0.029
aF-0.03
aF-0.0292
aF-0.0288
aF-0.0286
aF-0.0283
aF-0.029
aF-0.0288
aF-0.0289
aF-0.0287
aF-0.0287
aF-0.0294
aF-0.0295
aF-0.0303
aF-0.0289
aF-0.0303
aF-0.0291
aF-0.0302
aF-0.029
aF-0.03
aF-0.0296
aF-0.0281
aF-0.0297
aF-0.0294
aF-0.0301
aF-0.0302
aF-0.0286
aF-0.0302
aF-0.0275
aF-0.0286
aF-0.0291
aF-0.0295
aF-0.029
aF-0.0282
aF-0.0285
aF-0.0281
aF-0.0282
aF-0.0305
aF-0.0289
aF-0.0279
aF-0.0288
aF-0.0291
aF-0.0289
aF-0.0285
aF-0.029
aF-0.0285
aF-0.0277
aF-0.0298
aF-0.0293
aF-0.0308
aF-0.0292
aF-0.0293
aF-0.0289
aF-0.0278
aF-0.0291
aF-0.0294
aF-0.0298
aF-0.0285
aF-0.0295
aF-0.0288
aF-0.0293
aF-0.0306
aF-0.0288
aF-0.0292
aF-0.0285
aF-0.0287
aF-0.0284
aF-0.03
aF-0.0284
aF-0.0283
aF-0.0281
aF-0.0288
aF-0.0294
aF-0.0284
aF-0.0294
aF-0.0298
aF-0.0289
aF-0.0281
aF-0.0294
aF-0.0298
aF-0.0285
aF-0.0294
aF-0.0294
aF-0.0293
aF-0.0293
aF-0.0285
aF-0.0303
aF-0.0308
aF-0.0288
aF-0.0289
aF-0.03
aF-0.0295
aF-0.0292
aF-0.0282
aF-0.0279
aF-0.0291
aF-0.0303
aF-0.0297
aF-0.0278
aF-0.0292
aF-0.0282
aF-0.0278
aF-0.0302
aF-0.0297
aF-0.029
aF-0.029
aF-0.0288
aF-0.0296
aF-0.0298
aF-0.0289
aF-0.03
aF-0.029
aF-0.0281
aF-0.0287
aF-0.0299
aF-0.0294
aF-0.0288
aF-0.0282
aF-0.0288
aF-0.0278
aF-0.0289
aF-0.0292
aF-0.0299
aF-0.0291
aF-0.0287
aF-0.0287
aF-0.0293
aF-0.0288
aF-0.0295
aF-0.028
aF-0.0296
aF-0.0295
aF-0.0303
aF-0.0289
aF-0.0293
aF-0.0298
aF-0.0286
aF-0.0282
aF-0.0276
aF-0.0296
aF-0.0301
aF-0.029
aF-0.0292
aF-0.0299
aF-0.0302
aF-0.029
aF-0.0296
aF-0.0307
aF-0.0284
aF-0.0286
aF-0.0294
aF-0.0293
aF-0.0298
aF-0.0291
aF-0.0276
aF-0.0296
aF-0.03
aF-0.0294
aF-0.0293
aF-0.0291
aF-0.029
aF-0.029
aF-0.0282
aF-0.0284
aF-0.0301
aF-0.0303
aF-0.0292
aF-0.0296
aF-0.0289
aF-0.0303
aF-0.0291
aF-0.0295
aF-0.0289
aF-0.0294
aF-0.0296
aF-0.0295
aF-0.0302
aF-0.0292
aF-0.0285
aF-0.0292
aF-0.0296
aF-0.0299
aF-0.029
aF-0.0309
aF-0.0289
aF-0.0289
aF-0.0289
aF-0.0297
aF-0.0295
aF-0.0289
aF-0.0291
aF-0.0286
aF-0.0294
aF-0.0302
aF-0.0291
aF-0.0296
aF-0.0279
aF-0.0289
aF-0.0296
aF-0.0286
aF-0.0281
aF-0.0282
aF-0.0287
aF-0.0287
aF-0.0299
aF-0.0295
aF-0.0285
aF-0.0298
aF-0.0301
aF-0.0287
aF-0.0295
aF-0.029
aF-0.029
aF-0.0287
aF-0.0296
aF-0.0305
aF-0.0296
aF-0.0298
aF-0.0295
aF-0.0301
aF-0.0294
aF-0.0291
aF-0.0287
aF-0.0306
aF-0.0297
aF-0.0283
aF-0.0282
aF-0.0296
aF-0.0291
aF-0.0304
aF-0.0282
aF-0.0299
aF-0.0287
aF-0.0299
aF-0.0286
aF-0.0301
aF-0.0288
aF-0.0293
aF-0.0284
aF-0.0293
aF-0.03
aF-0.03
assg11
(g15
S'\x04\x00\x00\x00\x00\x00\x00\x00'
p57
tp58
Rp59
(dp60
S'vtune'
p61
(lp62
F24.450000784
aF24.450000784
asS'beam'
p63
(lp64
F-0.0294
aF-0.0295
aF-0.0274
aF-0.0279
aF-0.0289
aF-0.0293
aF-0.0287
aF-0.0275
aF-0.0276
aF-0.0291
aF-0.0289
aF-0.0303
aF-0.0291
aF-0.0287
aF-0.0278
aF-0.0283
aF-0.0286
aF-0.0302
aF-0.0285
aF-0.0279
aF-0.0274
aF-0.0292
aF-0.029
aF-0.0294
aF-0.0275
aF-0.0281
aF0.4531
aF1.134
aF1.136
aF1.136
aF1.136
aF1.137
aF1.138
aF1.137
aF1.137
aF1.136
aF1.136
aF1.137
aF1.138
aF1.138
aF1.137
aF1.136
aF1.137
aF1.137
aF1.137
aF1.137
aF1.137
aF1.137
aF1.136
aF1.137
aF1.137
aF1.137
aF1.137
aF1.136
aF1.136
aF1.137
aF1.137
aF1.137
aF1.137
aF1.135
aF1.136
aF1.137
aF1.137
aF1.138
aF1.137
aF1.137
aF1.136
aF1.138
aF1.136
aF1.136
aF1.136
aF1.136
aF1.137
aF1.136
aF1.138
aF1.136
aF1.136
aF1.137
aF1.136
aF1.136
aF1.137
aF1.136
aF1.136
aF1.136
aF1.136
aF1.135
aF1.135
aF1.137
aF1.137
aF1.137
aF1.137
aF1.135
aF1.136
aF1.135
aF1.135
aF1.136
aF1.135
aF1.137
aF1.137
aF1.137
aF1.136
aF1.136
aF1.136
aF1.136
aF1.137
aF1.137
aF1.135
aF1.135
aF1.135
aF1.136
aF1.136
aF1.137
aF1.136
aF1.136
aF1.136
aF1.137
aF1.137
aF1.135
aF1.136
aF1.135
aF1.135
aF1.135
aF1.136
aF1.137
aF1.136
aF1.135
aF1.135
aF1.137
aF1.137
aF1.134
aF1.136
aF1.135
aF1.135
aF1.136
aF1.136
aF1.135
aF1.136
aF1.135
aF1.136
aF1.136
aF1.136
aF1.136
aF1.135
aF1.135
aF1.136
aF1.136
aF1.137
aF1.137
aF1.136
aF1.137
aF1.135
aF1.136
aF1.137
aF1.135
aF1.135
aF1.135
aF1.136
aF1.136
aF1.136
aF1.136
aF1.136
aF1.135
aF1.137
aF1.136
aF1.136
aF1.135
aF1.135
aF1.135
aF1.136
aF1.136
aF1.137
aF1.136
aF1.135
aF1.135
aF1.134
aF1.135
aF1.135
aF1.134
aF1.134
aF1.136
aF1.137
aF1.136
aF1.136
aF1.136
aF1.136
aF1.136
aF1.136
aF1.136
aF1.136
aF1.135
aF1.136
aF1.135
aF1.136
aF1.135
aF1.137
aF1.137
aF1.136
aF1.136
aF1.136
aF1.137
aF1.136
aF1.136
aF1.137
aF1.136
aF1.135
aF1.137
aF1.137
aF1.136
aF1.137
aF1.136
aF1.136
aF1.137
aF1.137
aF1.137
aF1.136
aF1.135
aF1.135
aF1.136
aF1.136
aF1.137
aF1.136
aF1.135
aF1.136
aF1.136
aF1.137
aF1.136
aF1.136
aF1.136
aF1.136
aF1.136
aF1.137
aF1.137
aF1.135
aF1.136
aF1.134
aF1.137
aF1.136
aF1.136
aF1.136
aF1.135
aF1.136
aF1.135
aF1.136
aF1.137
aF1.137
aF1.137
aF1.136
aF1.137
aF1.136
aF1.135
aF1.134
aF1.137
aF1.135
aF1.135
aF1.137
aF1.135
aF1.136
aF1.136
aF1.136
aF1.136
aF1.136
aF1.135
aF1.136
aF1.135
aF1.136
aF1.135
aF1.135
aF1.138
aF1.135
aF1.135
aF1.136
aF1.137
aF1.136
aF1.136
aF1.134
aF1.135
aF1.134
aF1.134
aF1.136
aF1.136
aF1.135
aF1.134
aF1.135
aF1.135
aF1.134
aF1.134
aF1.134
aF1.134
aF1.134
aF1.134
aF1.134
aF1.135
aF1.134
aF1.134
aF1.135
aF1.135
aF1.135
aF1.133
aF1.134
aF1.133
aF1.135
aF1.134
aF1.134
aF1.135
aF1.134
aF1.133
aF1.133
aF1.133
aF1.133
aF1.134
aF1.134
aF1.133
aF1.134
aF1.134
aF1.134
aF1.135
aF1.133
aF1.132
aF1.134
aF1.134
aF1.133
aF1.133
aF1.133
aF1.131
aF1.133
aF1.133
aF1.132
aF1.133
aF1.133
aF1.132
aF1.133
aF1.134
aF1.133
aF1.132
aF1.134
aF1.132
aF1.132
aF1.134
aF1.132
aF1.133
aF1.133
aF1.132
aF1.133
aF1.132
aF1.132
aF1.13
aF1.133
aF1.131
aF1.132
aF1.133
aF1.132
aF1.132
aF1.131
aF1.131
aF1.131
aF1.132
aF1.131
aF1.132
aF1.131
aF1.131
aF1.132
aF1.133
aF1.132
aF1.132
aF1.132
aF1.132
aF1.132
aF1.133
aF1.132
aF1.132
aF1.131
aF1.132
aF1.13
aF1.131
aF1.132
aF1.131
aF1.131
aF1.13
aF1.131
aF1.132
aF1.131
aF1.13
aF1.13
aF1.131
aF1.13
aF1.133
aF1.133
aF1.131
aF1.131
aF1.13
aF1.131
aF1.129
aF1.13
aF1.129
aF1.13
aF1.129
aF1.13
aF1.128
aF1.131
aF1.129
aF1.13
aF1.129
aF1.13
aF1.128
aF1.129
aF1.128
aF1.128
aF1.129
aF1.128
aF1.129
aF1.128
aF1.128
aF1.128
aF1.128
aF1.128
aF1.127
aF1.128
aF1.127
aF1.127
aF1.126
aF1.126
aF1.126
aF1.126
aF1.128
aF1.126
aF1.125
aF1.124
aF1.124
aF1.124
aF1.123
aF1.122
aF1.121
aF1.12
aF1.121
aF1.121
aF1.119
aF1.117
aF1.115
aF1.11
aF1.1
aF1.094
aF1.088
aF1.074
aF1.055
aF1.033
aF1.0
aF0.9264
aF0.7974
aF0.6544
aF0.4917
aF0.3198
aF0.2141
aF0.1791
aF0.1667
aF0.1512
aF0.1338
aF0.123
aF0.1104
aF0.0845
aF0.0584
aF0.047
aF0.0391
aF0.0349
aF0.031
aF0.0288
aF0.0237
aF0.0223
aF0.0199
aF0.017
aF0.0174
aF0.0144
aF0.0146
aF0.0104
aF0.0085
aF0.0084
aF0.0088
aF0.0081
aF0.0069
aF0.0073
aF0.0052
aF0.0066
aF0.0052
aF0.0061
aF0.0065
aF0.0064
aF0.0069
aF0.0067
aF0.0074
aF0.0056
aF0.0055
aF0.005
aF0.0062
aF0.0049
aF0.0066
aF0.0074
aF0.0067
aF0.0057
aF0.0063
aF0.0069
aF0.0064
aF0.0054
aF0.0053
aF0.0047
aF0.0067
aF0.0058
aF0.0058
aF0.0059
aF0.0065
aF0.006
aF0.0066
aF0.0072
aF0.007
aF0.0067
aF0.0057
aF0.0054
aF0.0064
aF0.0057
aF0.0059
aF0.0071
aF0.0063
aF0.0063
aF0.0057
aF0.0064
aF0.0057
aF0.0061
aF0.0058
aF0.0056
aF0.0049
aF0.0048
aF0.0058
aF0.007
aF0.0065
aF0.0069
aF0.0059
aF0.0061
aF0.0068
aF0.0064
aF0.0057
aF0.0044
aF0.0047
aF0.0057
aF0.0067
aF0.0064
aF0.006
aF0.0051
aF0.0046
aF0.0058
aF0.0065
aF0.0059
aF0.0069
aF0.0062
aF0.0048
aF0.0049
aF0.0055
aF0.0058
aF0.006
aF0.005
aF0.0051
aF0.0062
aF0.0072
aF0.0067
aF0.0051
aF0.0062
aF0.0054
aF0.0058
aF0.0067
aF0.006
aF0.0068
aF0.0071
aF0.0045
aF0.0068
aF0.006
aF0.0057
aF0.0065
aF0.0058
aF-0.0037
aF-0.0295
aF-0.0279
aF-0.0274
aF-0.0278
aF-0.0288
aF-0.0285
aF-0.0269
aF-0.0273
aF-0.0284
aF-0.0287
aF-0.0287
aF-0.0289
aF-0.0284
aF-0.0294
aF-0.0276
aF-0.0294
aF-0.0294
aF-0.0288
aF-0.0284
aF-0.0286
aF-0.0279
aF-0.0283
aF-0.0283
aF-0.0294
aF-0.0282
aF-0.0277
aF-0.0266
aF-0.0284
aF-0.0275
aF-0.0288
aF-0.0289
aF-0.0279
aF-0.029
aF-0.0287
aF-0.0284
aF-0.0302
aF-0.0294
aF-0.0287
aF-0.0281
aF-0.0281
aF-0.0289
aF-0.0296
aF-0.0292
aF-0.0291
aF-0.0283
aF-0.028
aF-0.0293
aF-0.0296
aF-0.0286
aF-0.0286
aF-0.028
aF-0.0291
aF-0.0293
aF-0.0289
aF-0.0284
aF-0.029
aF-0.0287
aF-0.0293
aF-0.0284
aF-0.0289
aF-0.029
aF-0.0281
aF-0.0276
aF-0.0294
aF-0.029
aF-0.0277
aF-0.0271
aF-0.029
aF-0.0286
aF-0.028
aF-0.0291
aF-0.03
aF-0.0282
aF-0.0293
aF-0.0285
aF-0.0273
aF-0.0285
aF-0.0295
aF-0.0284
aF-0.0287
aF-0.0277
aF-0.0297
aF-0.0299
aF-0.0291
aF-0.0287
aF-0.0292
aF-0.0271
aF-0.0277
aF-0.0288
aF-0.0294
aF-0.0289
aF-0.0291
aF-0.0271
aF-0.0286
aF-0.0287
aF-0.029
aF-0.0293
aF-0.0281
aF-0.0271
aF-0.0284
aF-0.0283
aF-0.0292
aF-0.0291
aF-0.0278
aF-0.0275
aF-0.0289
aF-0.0289
aF-0.0289
aF-0.028
aF-0.0288
aF-0.0292
aF-0.029
aF-0.0287
aF-0.0283
aF-0.029
aF-0.0285
aF-0.0287
aF-0.0291
aF-0.0285
aF-0.0291
aF-0.0285
aF-0.0281
aF-0.028
aF-0.0271
aF-0.0287
aF-0.0289
aF-0.0285
aF-0.0279
aF-0.0294
aF-0.0297
aF-0.0289
aF-0.0296
aF-0.0295
aF-0.0287
aF-0.0281
aF-0.0289
aF-0.0282
aF-0.0288
aF-0.0281
aF-0.0294
aF-0.0293
aF-0.0296
aF-0.0295
aF-0.0297
aF-0.0284
aF-0.0283
aF-0.0276
aF-0.0285
aF-0.0295
aF-0.0282
aF-0.029
aF-0.0271
aF-0.027
aF-0.0294
aF-0.0284
aF-0.0294
aF-0.0306
aF-0.0282
aF-0.0289
aF-0.0294
aF-0.0288
aF-0.0286
aF-0.0295
aF-0.0284
aF-0.0287
aF-0.0286
aF-0.0294
aF-0.0276
aF-0.0288
aF-0.0282
aF-0.0284
aF-0.0279
aF-0.0288
aF-0.0289
aF-0.0289
aF-0.0287
aF-0.0283
aF-0.0295
aF-0.0297
aF-0.0295
aF-0.0292
aF-0.028
aF-0.0278
aF-0.0282
aF-0.0296
aF-0.0294
aF-0.0289
aF-0.0287
aF-0.0282
aF-0.0278
aF-0.0296
aF-0.0302
aF-0.0296
aF-0.0283
aF-0.0291
aF-0.0281
aF-0.0283
aF-0.029
aF-0.0287
aF-0.0285
aF-0.0285
aF-0.0303
aF-0.0296
aF-0.0301
aF-0.0295
aF-0.0288
aF-0.0279
aF-0.0275
aF-0.0291
aF-0.029
aF-0.0288
aF-0.028
aF-0.0291
aF-0.0298
aF-0.0278
aF-0.0302
aF-0.0286
aF-0.0282
aF-0.0277
aF-0.028
aF-0.0289
aF-0.0293
aF-0.0287
aF-0.0289
aF-0.0285
aF-0.0297
aF-0.0283
aF-0.0298
aF-0.0288
aF-0.029
aF-0.0285
aF-0.0281
aF-0.0285
aF-0.0272
aF-0.0289
aF-0.0275
aF-0.0287
aF-0.0286
aF-0.0277
aF-0.0307
aF-0.0294
aF-0.0293
aF-0.0277
aF-0.0289
aF-0.0287
aF-0.029
aF-0.0291
aF-0.0273
aF-0.0291
aF-0.0274
aF-0.0299
aF-0.0303
aF-0.0282
aF-0.029
aF-0.0264
aF-0.0278
aF-0.0291
aF-0.0298
aF-0.0289
aF-0.0283
aF-0.0279
aF-0.0284
aF-0.0291
aF-0.0294
aF-0.0281
aF-0.0293
aF-0.028
aF-0.0287
aF-0.0285
aF-0.031
aF-0.0285
aF-0.0289
aF-0.0278
aF-0.0303
aF-0.0284
aF-0.0291
aF-0.0291
aF-0.0284
aF-0.0277
aF-0.0273
aF-0.028
aF-0.0279
aF-0.0281
aF-0.0281
aF-0.027
aF-0.0295
aF-0.029
aF-0.0293
aF-0.0288
aF-0.0292
aF-0.029
aF-0.0293
aF-0.0285
aF-0.0297
aF-0.0279
aF-0.0294
aF-0.0289
aF-0.0296
aF-0.0285
aF-0.0288
aF-0.0279
aF-0.0278
aF-0.0288
aF-0.0284
aF-0.029
aF-0.0289
aF-0.0287
aF-0.0295
aF-0.0277
aF-0.0289
aF-0.0279
aF-0.028
aF-0.0305
aF-0.0281
aF-0.0283
aF-0.0278
aF-0.0282
aF-0.0291
aF-0.0282
aF-0.0289
aF-0.0286
aF-0.0286
aF-0.0281
aF-0.0286
aF-0.0277
aF-0.029
aF-0.028
aF-0.0289
aF-0.0273
aF-0.0284
aF-0.0287
aF-0.0276
aF-0.0276
aF-0.0289
aF-0.0283
aF-0.0296
aF-0.0277
aF-0.0281
aF-0.0282
aF-0.0279
aF-0.0294
aF-0.0285
aF-0.0282
aF-0.0277
aF-0.0279
aF-0.0282
aF-0.03
aF-0.0296
aF-0.0301
aF-0.0287
aF-0.0293
aF-0.0286
aF-0.0283
aF-0.0293
aF-0.0291
aF-0.0285
aF-0.0279
aF-0.0292
aF-0.028
aF-0.0292
asS'htune'
p65
(lp66
F25.469999243
aF25.309999396
asS'i'
p67
I4
sS'time'
p68
(lp69
F0.0011
aF0.0025
aF0.0039
aF0.0053
aF0.0067
aF0.0081
aF0.0094
aF0.0108
aF0.0122
aF0.0136
aF0.015
aF0.0164
aF0.0178
aF0.0192
aF0.0206
aF0.022
aF0.0233
aF0.0247
aF0.0261
aF0.0275
aF0.0289
aF0.0303
aF0.0317
aF0.0331
aF0.0345
aF0.0358
aF0.0372
aF0.0386
aF0.04
aF0.0414
aF0.0428
aF0.0442
aF0.0456
aF0.047
aF0.0483
aF0.0497
aF0.0511
aF0.0525
aF0.0539
aF0.0553
aF0.0567
aF0.0581
aF0.0595
aF0.0608
aF0.0622
aF0.0636
aF0.065
aF0.0664
aF0.0678
aF0.0692
aF0.0706
aF0.072
aF0.0733
aF0.0747
aF0.0761
aF0.0775
aF0.0789
aF0.0803
aF0.0817
aF0.0831
aF0.0845
aF0.0859
aF0.0872
aF0.0886
aF0.09
aF0.0914
aF0.0928
aF0.0942
aF0.0956
aF0.097
aF0.0984
aF0.0997
aF0.1011
aF0.1025
aF0.1039
aF0.1053
aF0.1067
aF0.1081
aF0.1095
aF0.1109
aF0.1122
aF0.1136
aF0.115
aF0.1164
aF0.1178
aF0.1192
aF0.1206
aF0.122
aF0.1234
aF0.1247
aF0.1261
aF0.1275
aF0.12890001
aF0.1303
aF0.13169999
aF0.1331
aF0.1345
aF0.13590001
aF0.1372
aF0.13860001
aF0.14
aF0.14139999
aF0.1428
aF0.1442
aF0.14560001
aF0.147
aF0.14839999
aF0.1498
aF0.15109999
aF0.1525
aF0.1539
aF0.15530001
aF0.1567
aF0.15809999
aF0.1595
aF0.1609
aF0.16230001
aF0.1636
aF0.16500001
aF0.1664
aF0.16779999
aF0.1692
aF0.1706
aF0.17200001
aF0.1734
aF0.17479999
aF0.1761
aF0.17749999
aF0.1789
aF0.1803
aF0.18170001
aF0.1831
aF0.18449999
aF0.1859
aF0.1873
aF0.1886
aF0.19
aF0.19140001
aF0.1928
aF0.19419999
aF0.1956
aF0.197
aF0.19840001
aF0.1998
aF0.20119999
aF0.2025
aF0.20389999
aF0.2053
aF0.2067
aF0.20810001
aF0.2095
aF0.21089999
aF0.2123
aF0.2137
aF0.215
aF0.2164
aF0.21780001
aF0.2192
aF0.22059999
aF0.222
aF0.2234
aF0.22480001
aF0.2262
aF0.22750001
aF0.2289
aF0.23029999
aF0.2317
aF0.2331
aF0.23450001
aF0.2359
aF0.23729999
aF0.2387
aF0.23999999
aF0.2414
aF0.2428
aF0.24420001
aF0.2456
aF0.24699999
aF0.2484
aF0.2498
aF0.25119999
aF0.25260001
aF0.25389999
aF0.25529999
aF0.25670001
aF0.2581
aF0.2595
aF0.26089999
aF0.26230001
aF0.26370001
aF0.2651
aF0.26640001
aF0.2678
aF0.2692
aF0.27059999
aF0.27200001
aF0.27340001
aF0.2748
aF0.2762
aF0.27759999
aF0.2789
aF0.28029999
aF0.28169999
aF0.28310001
aF0.2845
aF0.2859
aF0.28729999
aF0.28870001
aF0.29010001
aF0.29139999
aF0.29280001
aF0.2942
aF0.2956
aF0.29699999
aF0.29840001
aF0.29980001
aF0.3012
aF0.3026
aF0.3039
aF0.3053
aF0.30669999
aF0.30809999
aF0.30950001
aF0.3109
aF0.3123
aF0.31369999
aF0.31510001
aF0.31639999
aF0.31779999
aF0.31920001
aF0.3206
aF0.322
aF0.32339999
aF0.32480001
aF0.32620001
aF0.3276
aF0.329
aF0.3303
aF0.3317
aF0.33309999
aF0.33450001
aF0.33590001
aF0.3373
aF0.3387
aF0.34009999
aF0.34150001
aF0.34279999
aF0.34419999
aF0.34560001
aF0.347
aF0.3484
aF0.34979999
aF0.35120001
aF0.35260001
aF0.354
aF0.35530001
aF0.3567
aF0.3581
aF0.35949999
aF0.36090001
aF0.36230001
aF0.3637
aF0.3651
aF0.36649999
aF0.3678
aF0.36919999
aF0.37059999
aF0.37200001
aF0.3734
aF0.3748
aF0.37619999
aF0.37760001
aF0.37900001
aF0.38029999
aF0.38170001
aF0.3831
aF0.3845
aF0.38589999
aF0.38730001
aF0.38870001
aF0.3901
aF0.3915
aF0.39289999
aF0.3942
aF0.39559999
aF0.39700001
aF0.39840001
aF0.3998
aF0.4012
aF0.40259999
aF0.40400001
aF0.40540001
aF0.40669999
aF0.40810001
aF0.4095
aF0.4109
aF0.41229999
aF0.41370001
aF0.41510001
aF0.4165
aF0.4179
aF0.4192
aF0.4206
aF0.42199999
aF0.42340001
aF0.42480001
aF0.4262
aF0.4276
aF0.42899999
aF0.43040001
aF0.43169999
aF0.43309999
aF0.43450001
aF0.4359
aF0.4373
aF0.43869999
aF0.44010001
aF0.44150001
aF0.4429
aF0.44420001
aF0.4456
aF0.447
aF0.44839999
aF0.44980001
aF0.45120001
aF0.4526
aF0.454
aF0.45539999
aF0.45680001
aF0.45809999
aF0.45950001
aF0.46090001
aF0.4623
aF0.4637
aF0.46509999
aF0.46650001
aF0.46790001
aF0.4693
aF0.47060001
aF0.472
aF0.4734
aF0.47479999
aF0.47620001
aF0.47760001
aF0.479
aF0.4804
aF0.48179999
aF0.4831
aF0.48449999
aF0.48590001
aF0.48730001
aF0.4887
aF0.4901
aF0.49149999
aF0.49290001
aF0.49430001
aF0.49559999
aF0.49700001
aF0.4984
aF0.4998
aF0.50120002
aF0.50260001
aF0.50400001
aF0.5054
aF0.5068
aF0.50819999
aF0.50950003
aF0.51090002
aF0.51230001
aF0.51370001
aF0.5151
aF0.5165
aF0.51789999
aF0.51929998
aF0.52069998
aF0.52200001
aF0.52340001
aF0.5248
aF0.5262
aF0.52759999
aF0.52899998
aF0.53039998
aF0.53179997
aF0.53320003
aF0.5345
aF0.5359
aF0.53729999
aF0.53869998
aF0.54009998
aF0.54149997
aF0.54290003
aF0.54430002
aF0.54570001
aF0.54699999
aF0.54839998
aF0.54979998
aF0.55119997
aF0.55260003
aF0.55400002
aF0.55540001
aF0.55680001
aF0.5582
aF0.55949998
aF0.56089997
aF0.56230003
aF0.56370002
aF0.56510001
aF0.56650001
aF0.5679
aF0.5693
aF0.57069999
aF0.57209998
aF0.57340002
aF0.57480001
aF0.57620001
aF0.5776
aF0.579
aF0.58039999
aF0.58179998
aF0.58319998
aF0.58459997
aF0.58590001
aF0.5873
aF0.5887
aF0.59009999
aF0.59149998
aF0.59289998
aF0.59429997
aF0.59570003
aF0.59710002
aF0.5984
aF0.59979999
aF0.60119998
aF0.60259998
aF0.60399997
aF0.60540003
aF0.60680002
aF0.60820001
aF0.60960001
aF0.61089998
aF0.61229998
aF0.61369997
aF0.61510003
aF0.61650002
aF0.61790001
aF0.61930001
aF0.6207
aF0.6221
aF0.62339997
aF0.62480003
aF0.62620002
aF0.62760001
aF0.62900001
aF0.6304
aF0.6318
aF0.63319999
aF0.63459998
aF0.63599998
aF0.63730001
aF0.63870001
aF0.6401
aF0.6415
aF0.64289999
aF0.64429998
aF0.64569998
aF0.64709997
aF0.64850003
aF0.6498
aF0.6512
aF0.65259999
aF0.65399998
aF0.65539998
aF0.65679997
aF0.65820003
aF0.65960002
aF0.66100001
aF0.66229999
aF0.66369998
aF0.66509998
aF0.66649997
aF0.66790003
aF0.66930002
aF0.67070001
aF0.67210001
aF0.6735
aF0.67479998
aF0.67619997
aF0.67760003
aF0.67900002
aF0.68040001
aF0.68180001
aF0.6832
aF0.6846
aF0.68599999
aF0.68730003
aF0.68870002
aF0.69010001
aF0.69150001
aF0.6929
aF0.6943
aF0.69569999
aF0.69709998
aF0.69849998
aF0.69989997
aF0.70120001
aF0.7026
aF0.704
aF0.70539999
aF0.70679998
aF0.70819998
aF0.70959997
aF0.71100003
aF0.71240002
aF0.7137
aF0.71509999
aF0.71649998
aF0.71789998
aF0.71929997
aF0.72070003
aF0.72210002
aF0.72350001
aF0.72490001
aF0.72619998
aF0.72759998
aF0.72899997
aF0.73040003
aF0.73180002
aF0.73320001
aF0.73460001
aF0.736
aF0.7374
aF0.73869997
aF0.74010003
aF0.74150002
aF0.74290001
aF0.74430001
aF0.7457
aF0.7471
aF0.74849999
aF0.74989998
aF0.75120002
aF0.75260001
aF0.75400001
aF0.7554
aF0.7568
aF0.75819999
aF0.75959998
aF0.76099998
aF0.76239997
aF0.76380002
aF0.7651
aF0.7665
aF0.76789999
aF0.76929998
aF0.77069998
aF0.77209997
aF0.77350003
aF0.77490002
aF0.77630001
aF0.77759999
aF0.77899998
aF0.78039998
aF0.78179997
aF0.78320003
aF0.78460002
aF0.78600001
aF0.78740001
aF0.7888
aF0.79009998
aF0.79149997
aF0.79290003
aF0.79430002
aF0.79570001
aF0.79710001
aF0.7985
aF0.7999
aF0.80129999
aF0.80260003
aF0.80400002
aF0.80540001
aF0.80680001
aF0.8082
aF0.8096
aF0.81099999
aF0.81239998
aF0.81379998
aF0.81519997
aF0.81650001
aF0.8179
aF0.8193
aF0.82069999
aF0.82209998
aF0.82349998
aF0.82489997
aF0.82630002
aF0.82770002
aF0.829
aF0.83039999
aF0.83179998
aF0.83319998
aF0.83459997
aF0.83600003
aF0.83740002
aF0.83880001
aF0.84020001
aF0.84149998
aF0.84289998
aF0.84429997
aF0.84570003
aF0.84710002
aF0.84850001
aF0.84990001
aF0.8513
aF0.8527
aF0.85399997
aF0.85540003
aF0.85680002
aF0.85820001
aF0.85960001
aF0.861
aF0.8624
aF0.86379999
aF0.86519998
aF0.86650002
aF0.86790001
aF0.86930001
aF0.8707
aF0.8721
aF0.87349999
aF0.87489998
aF0.87629998
aF0.87769997
aF0.87910002
aF0.8804
aF0.8818
aF0.88319999
aF0.88459998
aF0.88599998
aF0.88739997
aF0.88880002
aF0.89020002
aF0.89160001
aF0.89289999
aF0.89429998
aF0.89569998
aF0.89709997
aF0.89850003
aF0.89990002
aF0.90130001
aF0.90270001
aF0.9041
aF0.90539998
aF0.90679997
aF0.90820003
aF0.90960002
aF0.91100001
aF0.91240001
aF0.9138
aF0.9152
aF0.91659999
aF0.91790003
aF0.91930002
aF0.92070001
aF0.92210001
aF0.9235
aF0.9249
aF0.92629999
aF0.92769998
aF0.92909998
aF0.93040001
aF0.93180001
aF0.9332
aF0.9346
aF0.93599999
aF0.93739998
aF0.93879998
aF0.94019997
aF0.94160002
aF0.94300002
aF0.9443
aF0.94569999
aF0.94709998
aF0.94849998
aF0.94989997
aF0.95130002
aF0.95270002
aF0.95410001
aF0.95550001
aF0.95679998
aF0.95819998
aF0.95959997
aF0.96100003
aF0.96240002
aF0.96380001
aF0.96520001
aF0.9666
aF0.96799999
aF0.96929997
aF0.97070003
aF0.97210002
aF0.97350001
aF0.97490001
aF0.9763
aF0.9777
aF0.97909999
aF0.98049998
aF0.98189998
aF0.98320001
aF0.98460001
aF0.986
aF0.9874
aF0.98879999
aF0.99019998
aF0.99159998
aF0.99299997
aF0.99430001
aF0.9957
aF0.9971
aF0.99849999
aF0.99989998
aF1.0013
aF1.0027
aF1.0041
aF1.0055
aF1.0069
aF1.0082
aF1.0096
aF1.011
aF1.0124
aF1.0138
aF1.0152
aF1.0166
aF1.018
aF1.0194
aF1.0207
aF1.0221
aF1.0235
aF1.0249
aF1.0263
aF1.0276999
aF1.0290999
aF1.0305001
aF1.0319
aF1.0332
aF1.0346
aF1.036
aF1.0374
aF1.0388
aF1.0402
aF1.0416
aF1.043
aF1.0444
aF1.0457
aF1.0470999
aF1.0484999
aF1.0499001
aF1.0513
aF1.0527
aF1.0541
aF1.0555
aF1.0569
aF1.0582
aF1.0596
aF1.061
aF1.0624
aF1.0638
aF1.0652
aF1.0666
aF1.068
aF1.0694
aF1.0707999
aF1.0721
aF1.0735
aF1.0749
aF1.0763
aF1.0777
aF1.0791
aF1.0805
aF1.0819
aF1.0833
aF1.0846
aF1.086
aF1.0874
aF1.0888
aF1.0901999
aF1.0915999
aF1.0930001
aF1.0944
aF1.0958
aF1.0971
aF1.0985
aF1.0999
aF1.1013
aF1.1027
aF1.1041
aF1.1055
aF1.1069
aF1.1083
aF1.1095999
aF1.1109999
aF1.1124001
aF1.1138
aF1.1152
aF1.1166
aF1.118
aF1.1194
aF1.1208
aF1.1222
aF1.1235
aF1.1249
aF1.1263
aF1.1277
aF1.1291
aF1.1305
aF1.1319
aF1.1332999
aF1.1346999
aF1.136
aF1.1374
aF1.1388
aF1.1402
aF1.1416
aF1.143
aF1.1444
aF1.1458
aF1.1472
aF1.1485
aF1.1499
aF1.1513
aF1.1526999
aF1.1540999
aF1.1555001
aF1.1569
aF1.1583
aF1.1597
aF1.161
aF1.1624
aF1.1638
aF1.1652
aF1.1666
aF1.168
aF1.1694
aF1.1708
aF1.1722
aF1.1734999
aF1.1749001
aF1.1763
aF1.1777
aF1.1791
aF1.1805
aF1.1819
aF1.1833
aF1.1847
aF1.1861
aF1.1874
aF1.1888
aF1.1902
aF1.1916
aF1.193
aF1.1944
aF1.1957999
aF1.1971999
aF1.1986001
aF1.1999
aF1.2013
aF1.2027
aF1.2041
aF1.2055
aF1.2069
aF1.2083
aF1.2097
aF1.2111
aF1.2124
aF1.2138
aF1.2151999
aF1.2165999
aF1.2180001
aF1.2194
aF1.2208
aF1.2222
aF1.2236
aF1.2249
aF1.2263
aF1.2277
aF1.2291
aF1.2305
aF1.2319
aF1.2333
aF1.2347
aF1.2361
aF1.2374001
aF1.2388
aF1.2402
aF1.2416
aF1.243
aF1.2444
aF1.2458
aF1.2472
aF1.2486
aF1.25
aF1.2513
aF1.2527
aF1.2541
aF1.2555
aF1.2569
aF1.2582999
aF1.2596999
aF1.2611001
aF1.2625
aF1.2638
aF1.2652
aF1.2666
aF1.268
aF1.2694
aF1.2708
aF1.2722
aF1.2736
aF1.275
aF1.2763
aF1.2776999
aF1.2790999
aF1.2805001
aF1.2819
aF1.2833
aF1.2847
aF1.2861
aF1.2875
aF1.2888
aF1.2902
aF1.2916
aF1.293
aF1.2944
aF1.2958
aF1.2972
aF1.2986
aF1.3
ass.