(dp0
I0
(dp1
S'i'
p2
I0
sS'vtune'
p3
(lp4
F24.450000784
aF24.450000784
asS'time'
p5
(lp6
F0.001
aF0.0024
aF0.0038
aF0.0051
aF0.0065
aF0.0079
aF0.0093
aF0.0107
aF0.0121
aF0.0135
aF0.0149
aF0.0163
aF0.0176
aF0.019
aF0.0204
aF0.0218
aF0.0232
aF0.0246
aF0.026
aF0.0274
aF0.0288
aF0.0302
aF0.0315
aF0.0329
aF0.0343
aF0.0357
aF0.0371
aF0.0385
aF0.0399
aF0.0413
aF0.0427
aF0.044
aF0.0454
aF0.0468
aF0.0482
aF0.0496
aF0.051
aF0.0524
aF0.0538
aF0.0552
aF0.0565
aF0.0579
aF0.0593
aF0.0607
aF0.0621
aF0.0635
aF0.0649
aF0.0663
aF0.0677
aF0.069
aF0.0704
aF0.0718
aF0.0732
aF0.0746
aF0.076
aF0.0774
aF0.0788
aF0.0802
aF0.0815
aF0.0829
aF0.0843
aF0.0857
aF0.0871
aF0.0885
aF0.0899
aF0.0913
aF0.0927
aF0.0941
aF0.0954
aF0.0968
aF0.0982
aF0.0996
aF0.101
aF0.1024
aF0.1038
aF0.1052
aF0.1066
aF0.1079
aF0.1093
aF0.1107
aF0.1121
aF0.1135
aF0.1149
aF0.1163
aF0.1177
aF0.1191
aF0.1205
aF0.1218
aF0.1232
aF0.1246
aF0.126
aF0.1274
aF0.1288
aF0.1302
aF0.13160001
aF0.1329
aF0.13429999
aF0.1357
aF0.1371
aF0.13850001
aF0.1399
aF0.14129999
aF0.1427
aF0.1441
aF0.1455
aF0.1468
aF0.14820001
aF0.1496
aF0.15099999
aF0.1524
aF0.1538
aF0.1552
aF0.1566
aF0.15800001
aF0.1593
aF0.16069999
aF0.1621
aF0.1635
aF0.1649
aF0.1663
aF0.16769999
aF0.1691
aF0.1705
aF0.1718
aF0.1732
aF0.17460001
aF0.176
aF0.17739999
aF0.1788
aF0.1802
aF0.1816
aF0.183
aF0.18430001
aF0.1857
aF0.18709999
aF0.1885
aF0.1899
aF0.1913
aF0.1927
aF0.19410001
aF0.1955
aF0.19679999
aF0.1982
aF0.1996
aF0.20100001
aF0.2024
aF0.20379999
aF0.2052
aF0.2066
aF0.208
aF0.2094
aF0.21070001
aF0.2121
aF0.21349999
aF0.2149
aF0.2163
aF0.2177
aF0.2191
aF0.22050001
aF0.2219
aF0.22319999
aF0.2246
aF0.226
aF0.2274
aF0.2288
aF0.23019999
aF0.2316
aF0.233
aF0.2344
aF0.2357
aF0.23710001
aF0.2385
aF0.23989999
aF0.2413
aF0.2427
aF0.2441
aF0.2455
aF0.24690001
aF0.2482
aF0.24959999
aF0.25099999
aF0.25240001
aF0.2538
aF0.2552
aF0.25659999
aF0.25799999
aF0.25940001
aF0.26069999
aF0.26210001
aF0.26350001
aF0.2649
aF0.26629999
aF0.26769999
aF0.26910001
aF0.2705
aF0.2719
aF0.27329999
aF0.2746
aF0.27599999
aF0.27739999
aF0.27880001
aF0.2802
aF0.2816
aF0.28299999
aF0.28439999
aF0.28580001
aF0.28709999
aF0.28850001
aF0.2899
aF0.2913
aF0.29269999
aF0.29409999
aF0.29550001
aF0.2969
aF0.2983
aF0.29960001
aF0.301
aF0.30239999
aF0.30379999
aF0.30520001
aF0.3066
aF0.308
aF0.30939999
aF0.31079999
aF0.31209999
aF0.31349999
aF0.31490001
aF0.3163
aF0.3177
aF0.31909999
aF0.32049999
aF0.32190001
aF0.3233
aF0.32460001
aF0.32600001
aF0.3274
aF0.32879999
aF0.33019999
aF0.33160001
aF0.333
aF0.3344
aF0.33579999
aF0.33719999
aF0.33849999
aF0.33989999
aF0.34130001
aF0.3427
aF0.3441
aF0.34549999
aF0.34689999
aF0.34830001
aF0.3497
aF0.35100001
aF0.3524
aF0.3538
aF0.35519999
aF0.35659999
aF0.35800001
aF0.3594
aF0.3608
aF0.36219999
aF0.3635
aF0.36489999
aF0.36629999
aF0.36770001
aF0.3691
aF0.3705
aF0.37189999
aF0.37329999
aF0.37470001
aF0.3761
aF0.37740001
aF0.3788
aF0.3802
aF0.38159999
aF0.38299999
aF0.38440001
aF0.3858
aF0.3872
aF0.38859999
aF0.3899
aF0.39129999
aF0.39269999
aF0.39410001
aF0.3955
aF0.3969
aF0.39829999
aF0.39969999
aF0.40110001
aF0.40239999
aF0.40380001
aF0.4052
aF0.4066
aF0.40799999
aF0.40939999
aF0.41080001
aF0.4122
aF0.4136
aF0.4149
aF0.4163
aF0.41769999
aF0.41909999
aF0.42050001
aF0.4219
aF0.4233
aF0.42469999
aF0.42609999
aF0.42739999
aF0.42879999
aF0.43020001
aF0.4316
aF0.433
aF0.43439999
aF0.43579999
aF0.43720001
aF0.4386
aF0.43990001
aF0.4413
aF0.4427
aF0.44409999
aF0.44549999
aF0.44690001
aF0.4483
aF0.4497
aF0.45109999
aF0.45249999
aF0.45379999
aF0.45519999
aF0.45660001
aF0.458
aF0.4594
aF0.46079999
aF0.46219999
aF0.46360001
aF0.465
aF0.46630001
aF0.4677
aF0.4691
aF0.47049999
aF0.47189999
aF0.47330001
aF0.4747
aF0.4761
aF0.47749999
aF0.4788
aF0.48019999
aF0.48159999
aF0.48300001
aF0.4844
aF0.4858
aF0.48719999
aF0.48859999
aF0.49000001
aF0.49129999
aF0.49270001
aF0.4941
aF0.4955
aF0.49689999
aF0.49829999
aF0.49970001
aF0.5011
aF0.5025
aF0.50379997
aF0.50520003
aF0.50660002
aF0.50800002
aF0.50940001
aF0.5108
aF0.5122
aF0.51359999
aF0.51499999
aF0.51639998
aF0.51770002
aF0.51910001
aF0.5205
aF0.5219
aF0.52329999
aF0.52469999
aF0.52609998
aF0.52749997
aF0.52890003
aF0.5302
aF0.5316
aF0.53299999
aF0.53439999
aF0.53579998
aF0.53719997
aF0.53860003
aF0.54000002
aF0.54140002
aF0.54269999
aF0.54409999
aF0.54549998
aF0.54689997
aF0.54830003
aF0.54970002
aF0.55110002
aF0.55250001
aF0.5539
aF0.55519998
aF0.55659997
aF0.55800003
aF0.55940002
aF0.56080002
aF0.56220001
aF0.5636
aF0.565
aF0.56639999
aF0.56770003
aF0.56910002
aF0.57050002
aF0.57190001
aF0.5733
aF0.5747
aF0.57609999
aF0.57749999
aF0.57889998
aF0.58029997
aF0.58160001
aF0.583
aF0.5844
aF0.58579999
aF0.58719999
aF0.58859998
aF0.58999997
aF0.59140003
aF0.59280002
aF0.5941
aF0.59549999
aF0.59689999
aF0.59829998
aF0.59969997
aF0.60110003
aF0.60250002
aF0.60390002
aF0.60530001
aF0.60659999
aF0.60799998
aF0.60939997
aF0.61080003
aF0.61220002
aF0.61360002
aF0.61500001
aF0.6164
aF0.6178
aF0.61909997
aF0.62050003
aF0.62190002
aF0.62330002
aF0.62470001
aF0.6261
aF0.6275
aF0.62889999
aF0.63029999
aF0.63160002
aF0.63300002
aF0.63440001
aF0.6358
aF0.6372
aF0.63859999
aF0.63999999
aF0.64139998
aF0.64279997
aF0.64420003
aF0.6455
aF0.6469
aF0.64829999
aF0.64969999
aF0.65109998
aF0.65249997
aF0.65390003
aF0.65530002
aF0.65670002
aF0.65799999
aF0.65939999
aF0.66079998
aF0.66219997
aF0.66360003
aF0.66500002
aF0.66640002
aF0.66780001
aF0.6692
aF0.67049998
aF0.67189997
aF0.67330003
aF0.67470002
aF0.67610002
aF0.67750001
aF0.6789
aF0.6803
aF0.68169999
aF0.68300003
aF0.68440002
aF0.68580002
aF0.68720001
aF0.6886
aF0.69
aF0.69139999
aF0.69279999
aF0.69419998
aF0.69550002
aF0.69690001
aF0.6983
aF0.6997
aF0.70109999
aF0.70249999
aF0.70389998
aF0.70529997
aF0.70670003
aF0.70810002
aF0.7094
aF0.71079999
aF0.71219999
aF0.71359998
aF0.71499997
aF0.71640003
aF0.71780002
aF0.71920002
aF0.72060001
aF0.72189999
aF0.72329998
aF0.72469997
aF0.72610003
aF0.72750002
aF0.72890002
aF0.73030001
aF0.7317
aF0.7331
aF0.73439997
aF0.73580003
aF0.73720002
aF0.73860002
aF0.74000001
aF0.7414
aF0.7428
aF0.74419999
aF0.74559999
aF0.74690002
aF0.74830002
aF0.74970001
aF0.7511
aF0.7525
aF0.75389999
aF0.75529999
aF0.75669998
aF0.75809997
aF0.75950003
aF0.7608
aF0.7622
aF0.76359999
aF0.76499999
aF0.76639998
aF0.76779997
aF0.76920003
aF0.77060002
aF0.77200001
aF0.77329999
aF0.77469999
aF0.77609998
aF0.77749997
aF0.77890003
aF0.78030002
aF0.78170002
aF0.78310001
aF0.7845
aF0.78579998
aF0.78719997
aF0.78860003
aF0.79000002
aF0.79140002
aF0.79280001
aF0.7942
aF0.7956
aF0.79699999
aF0.79830003
aF0.79970002
aF0.80110002
aF0.80250001
aF0.8039
aF0.8053
aF0.80669999
aF0.80809999
aF0.80949998
aF0.81080002
aF0.81220001
aF0.8136
aF0.815
aF0.81639999
aF0.81779999
aF0.81919998
aF0.82059997
aF0.82200003
aF0.82340002
aF0.8247
aF0.82609999
aF0.82749999
aF0.82889998
aF0.83029997
aF0.83170003
aF0.83310002
aF0.83450001
aF0.83590001
aF0.83719999
aF0.83859998
aF0.83999997
aF0.84140003
aF0.84280002
aF0.84420002
aF0.84560001
aF0.847
aF0.8484
aF0.84969997
aF0.85110003
aF0.85250002
aF0.85390002
aF0.85530001
aF0.8567
aF0.8581
aF0.85949999
aF0.86089998
aF0.86220002
aF0.86360002
aF0.86500001
aF0.8664
aF0.8678
aF0.86919999
aF0.87059999
aF0.87199998
aF0.87339997
aF0.87470001
aF0.8761
aF0.8775
aF0.87889999
aF0.88029999
aF0.88169998
aF0.88309997
aF0.88450003
aF0.88590002
aF0.88730001
aF0.88859999
aF0.88999999
aF0.89139998
aF0.89279997
aF0.89420003
aF0.89560002
aF0.89700001
aF0.89840001
aF0.8998
aF0.90109998
aF0.90249997
aF0.90390003
aF0.90530002
aF0.90670002
aF0.90810001
aF0.9095
aF0.9109
aF0.91229999
aF0.91360003
aF0.91500002
aF0.91640002
aF0.91780001
aF0.9192
aF0.9206
aF0.92199999
aF0.92339998
aF0.92479998
aF0.92610002
aF0.92750001
aF0.9289
aF0.9303
aF0.93169999
aF0.93309999
aF0.93449998
aF0.93589997
aF0.93730003
aF0.9386
aF0.94
aF0.94139999
aF0.94279999
aF0.94419998
aF0.94559997
aF0.94700003
aF0.94840002
aF0.94980001
aF0.95120001
aF0.95249999
aF0.95389998
aF0.95529997
aF0.95670003
aF0.95810002
aF0.95950001
aF0.96090001
aF0.9623
aF0.9637
aF0.96499997
aF0.96640003
aF0.96780002
aF0.96920002
aF0.97060001
aF0.972
aF0.9734
aF0.97479999
aF0.97619998
aF0.97750002
aF0.97890002
aF0.98030001
aF0.9817
aF0.9831
aF0.98449999
aF0.98589998
aF0.98729998
aF0.98869997
aF0.99000001
aF0.9914
aF0.9928
aF0.99419999
aF0.99559999
aF0.99699998
aF0.99839997
aF0.99980003
aF1.0012
aF1.0026
aF1.0039001
aF1.0053
aF1.0067
aF1.0081
aF1.0095
aF1.0109
aF1.0123
aF1.0137
aF1.0151
aF1.0164
aF1.0178
aF1.0192
aF1.0206
aF1.022
aF1.0233999
aF1.0247999
aF1.0262001
aF1.0276
aF1.0289
aF1.0303
aF1.0317
aF1.0331
aF1.0345
aF1.0359
aF1.0373
aF1.0387
aF1.0401
aF1.0414
aF1.0427999
aF1.0441999
aF1.0456001
aF1.0470001
aF1.0484
aF1.0498
aF1.0512
aF1.0526
aF1.054
aF1.0553
aF1.0567
aF1.0581
aF1.0595
aF1.0609
aF1.0623
aF1.0637
aF1.0651
aF1.0664999
aF1.0678
aF1.0692
aF1.0706
aF1.072
aF1.0734
aF1.0748
aF1.0762
aF1.0776
aF1.079
aF1.0803
aF1.0817
aF1.0831
aF1.0845
aF1.0858999
aF1.0872999
aF1.0887001
aF1.0901
aF1.0915
aF1.0928
aF1.0942
aF1.0956
aF1.097
aF1.0984
aF1.0998
aF1.1012
aF1.1026
aF1.104
aF1.1052999
aF1.1066999
aF1.1081001
aF1.1095001
aF1.1109
aF1.1123
aF1.1137
aF1.1151
aF1.1165
aF1.1178
aF1.1192
aF1.1206
aF1.122
aF1.1234
aF1.1248
aF1.1262
aF1.1276
aF1.1289999
aF1.1303999
aF1.1317
aF1.1331
aF1.1345
aF1.1359
aF1.1373
aF1.1387
aF1.1401
aF1.1415
aF1.1429
aF1.1442
aF1.1456
aF1.147
aF1.1483999
aF1.1497999
aF1.1512001
aF1.1526
aF1.154
aF1.1554
aF1.1567
aF1.1581
aF1.1595
aF1.1609
aF1.1623
aF1.1637
aF1.1651
aF1.1665
aF1.1679
aF1.1691999
aF1.1706001
aF1.1720001
aF1.1734
aF1.1748
aF1.1762
aF1.1776
aF1.179
aF1.1804
aF1.1817
aF1.1831
aF1.1845
aF1.1859
aF1.1873
aF1.1887
aF1.1901
aF1.1914999
aF1.1928999
aF1.1943001
aF1.1956
aF1.197
aF1.1984
aF1.1998
aF1.2012
aF1.2026
aF1.204
aF1.2054
aF1.2068
aF1.2081
aF1.2095
aF1.2108999
aF1.2122999
aF1.2137001
aF1.2151
aF1.2165
aF1.2179
aF1.2193
aF1.2206
aF1.222
aF1.2234
aF1.2248
aF1.2262
aF1.2276
aF1.229
aF1.2304
aF1.2318
aF1.2331001
aF1.2345001
aF1.2359
aF1.2373
aF1.2387
aF1.2401
aF1.2415
aF1.2429
aF1.2443
aF1.2456
aF1.247
aF1.2484
aF1.2498
aF1.2512
aF1.2526
aF1.2539999
aF1.2553999
aF1.2568001
aF1.2582
aF1.2595
aF1.2609
aF1.2623
aF1.2637
aF1.2651
aF1.2665
aF1.2679
aF1.2693
aF1.2707
aF1.272
aF1.2733999
aF1.2747999
aF1.2762001
aF1.2776
aF1.279
aF1.2804
aF1.2818
aF1.2832
aF1.2845
aF1.2859
aF1.2873
aF1.2887
aF1.2901
aF1.2915
aF1.2929
aF1.2943
aF1.2957
aF1.2970001
aF1.2984
aF1.2998
asS'beam'
p7
(lp8
F-0.0286
aF-0.0287
aF-0.0258
aF-0.0273
aF-0.0274
aF-0.029
aF-0.0284
aF-0.028
aF-0.0276
aF-0.0282
aF-0.0284
aF-0.0299
aF-0.0274
aF-0.0289
aF-0.0292
aF-0.0273
aF-0.0285
aF-0.0287
aF-0.0278
aF-0.0277
aF-0.029
aF-0.0283
aF-0.0294
aF-0.0299
aF-0.028
aF-0.0289
aF0.2114
aF0.7837
aF0.7891
aF0.7875
aF0.7879
aF0.7897
aF0.7888
aF0.7885
aF0.7883
aF0.7865
aF0.7883
aF0.7876
aF0.7886
aF0.7888
aF0.7888
aF0.7888
aF0.7878
aF0.7887
aF0.7874
aF0.7878
aF0.7884
aF0.7882
aF0.7866
aF0.7879
aF0.7875
aF0.7894
aF0.7888
aF0.7872
aF0.7887
aF0.7884
aF0.7877
aF0.7864
aF0.787
aF0.7868
aF0.7872
aF0.7857
aF0.7877
aF0.7879
aF0.7858
aF0.7865
aF0.7858
aF0.7872
aF0.7864
aF0.7857
aF0.7865
aF0.7855
aF0.7845
aF0.7855
aF0.7869
aF0.7861
aF0.7858
aF0.7849
aF0.7859
aF0.786
aF0.7862
aF0.7851
aF0.785
aF0.7854
aF0.7855
aF0.7853
aF0.7847
aF0.7862
aF0.7866
aF0.7847
aF0.7833
aF0.7843
aF0.7851
aF0.7839
aF0.7848
aF0.7845
aF0.7848
aF0.7838
aF0.7858
aF0.7844
aF0.7851
aF0.7839
aF0.7847
aF0.7845
aF0.7834
aF0.7837
aF0.782
aF0.7836
aF0.783
aF0.783
aF0.7847
aF0.7853
aF0.7844
aF0.7837
aF0.7838
aF0.7836
aF0.784
aF0.7835
aF0.7838
aF0.7829
aF0.7844
aF0.7849
aF0.7841
aF0.7829
aF0.7839
aF0.7844
aF0.7853
aF0.7842
aF0.7838
aF0.7838
aF0.7839
aF0.7836
aF0.7838
aF0.7842
aF0.7858
aF0.7846
aF0.7838
aF0.7842
aF0.7829
aF0.7846
aF0.7835
aF0.7831
aF0.7837
aF0.7826
aF0.7832
aF0.7823
aF0.7832
aF0.7849
aF0.7853
aF0.7829
aF0.7843
aF0.7839
aF0.7854
aF0.7854
aF0.782
aF0.783
aF0.7832
aF0.7835
aF0.785
aF0.7837
aF0.7833
aF0.7837
aF0.7839
aF0.7837
aF0.7831
aF0.7824
aF0.7826
aF0.7816
aF0.7818
aF0.7832
aF0.7845
aF0.7836
aF0.7842
aF0.7823
aF0.7817
aF0.7841
aF0.7834
aF0.782
aF0.7815
aF0.7817
aF0.7826
aF0.7813
aF0.7837
aF0.7831
aF0.7832
aF0.7823
aF0.7824
aF0.7826
aF0.7829
aF0.7813
aF0.7821
aF0.7816
aF0.7813
aF0.7818
aF0.7836
aF0.7827
aF0.7818
aF0.7815
aF0.7816
aF0.7822
aF0.7816
aF0.7825
aF0.7814
aF0.7814
aF0.7821
aF0.7818
aF0.7826
aF0.7818
aF0.7812
aF0.7808
aF0.7815
aF0.7828
aF0.782
aF0.7805
aF0.7816
aF0.7813
aF0.7816
aF0.7814
aF0.7829
aF0.781
aF0.7802
aF0.7821
aF0.7821
aF0.7809
aF0.7823
aF0.7805
aF0.7801
aF0.7807
aF0.7801
aF0.7817
aF0.7814
aF0.7811
aF0.7812
aF0.7811
aF0.781
aF0.783
aF0.7815
aF0.7809
aF0.78
aF0.7813
aF0.7808
aF0.7798
aF0.7814
aF0.7814
aF0.7815
aF0.7805
aF0.7825
aF0.7808
aF0.7809
aF0.7807
aF0.7817
aF0.7813
aF0.7806
aF0.7815
aF0.7828
aF0.782
aF0.7804
aF0.7806
aF0.7813
aF0.7819
aF0.7824
aF0.7808
aF0.7814
aF0.7816
aF0.7815
aF0.7813
aF0.7814
aF0.7814
aF0.7819
aF0.7803
aF0.7822
aF0.7818
aF0.7816
aF0.7806
aF0.7822
aF0.781
aF0.7811
aF0.7808
aF0.7821
aF0.7806
aF0.7812
aF0.7816
aF0.7807
aF0.7806
aF0.7817
aF0.7812
aF0.7809
aF0.7803
aF0.7804
aF0.7802
aF0.7805
aF0.7823
aF0.7817
aF0.781
aF0.7811
aF0.7794
aF0.7811
aF0.7808
aF0.7809
aF0.7798
aF0.7808
aF0.7801
aF0.7814
aF0.7808
aF0.7798
aF0.78
aF0.781
aF0.7802
aF0.7802
aF0.7794
aF0.7791
aF0.7799
aF0.7805
aF0.7804
aF0.7812
aF0.7806
aF0.7799
aF0.78
aF0.7794
aF0.7807
aF0.78
aF0.779
aF0.78
aF0.7781
aF0.7798
aF0.7794
aF0.7796
aF0.7804
aF0.7801
aF0.7792
aF0.7796
aF0.7816
aF0.7804
aF0.7788
aF0.7791
aF0.7798
aF0.7793
aF0.7807
aF0.7801
aF0.7806
aF0.7798
aF0.7787
aF0.7805
aF0.7786
aF0.7788
aF0.7787
aF0.7794
aF0.7797
aF0.7792
aF0.779
aF0.7788
aF0.779
aF0.7779
aF0.778
aF0.7792
aF0.7785
aF0.7776
aF0.7771
aF0.7773
aF0.7755
aF0.7768
aF0.776
aF0.775
aF0.7741
aF0.7733
aF0.772
aF0.7693
aF0.7674
aF0.7652
aF0.7615
aF0.7588
aF0.7568
aF0.7553
aF0.7529
aF0.7516
aF0.7478
aF0.7453
aF0.7393
aF0.7344
aF0.7295
aF0.7265
aF0.7216
aF0.7185
aF0.7156
aF0.7157
aF0.7119
aF0.7084
aF0.7021
aF0.6968
aF0.6884
aF0.6744
aF0.6618
aF0.657
aF0.6491
aF0.6423
aF0.6368
aF0.6355
aF0.6316
aF0.6228
aF0.6099
aF0.5998
aF0.5832
aF0.558
aF0.5294
aF0.5125
aF0.5025
aF0.4874
aF0.4739
aF0.4679
aF0.4602
aF0.4435
aF0.4225
aF0.4063
aF0.3815
aF0.3368
aF0.2885
aF0.2577
aF0.2414
aF0.2225
aF0.2075
aF0.2022
aF0.1953
aF0.1785
aF0.1563
aF0.1386
aF0.1192
aF0.0823
aF0.048
aF0.0336
aF0.0283
aF0.0238
aF0.0196
aF0.0166
aF0.0163
aF0.0112
aF0.0043
aF-0.0004
aF-0.0051
aF-0.0094
aF-0.011
aF-0.0121
aF-0.0147
aF-0.0157
aF-0.0171
aF-0.0176
aF-0.0175
aF-0.0178
aF-0.0186
aF-0.0199
aF-0.0206
aF-0.0207
aF-0.0206
aF-0.0209
aF-0.0215
aF-0.0225
aF-0.0236
aF-0.0229
aF-0.0225
aF-0.0223
aF-0.023
aF-0.0222
aF-0.0249
aF-0.0229
aF-0.024
aF-0.022
aF-0.0247
aF-0.0237
aF-0.0243
aF-0.0237
aF-0.0249
aF-0.0234
aF-0.0233
aF-0.0236
aF-0.023
aF-0.0229
aF-0.0241
aF-0.0242
aF-0.0242
aF-0.0236
aF-0.0256
aF-0.0241
aF-0.024
aF-0.0237
aF-0.0231
aF-0.0248
aF-0.0242
aF-0.0238
aF-0.0237
aF-0.0227
aF-0.0244
aF-0.0241
aF-0.0244
aF-0.0253
aF-0.0259
aF-0.0225
aF-0.0233
aF-0.0246
aF-0.0243
aF-0.0238
aF-0.0237
aF-0.0245
aF-0.0244
aF-0.0251
aF-0.0247
aF-0.0244
aF-0.0254
aF-0.0246
aF-0.0243
aF-0.024
aF-0.0254
aF-0.0241
aF-0.0247
aF-0.0235
aF-0.0237
aF-0.0243
aF-0.0259
aF-0.0243
aF-0.0236
aF-0.0254
aF-0.0226
aF-0.0232
aF-0.0245
aF-0.0234
aF-0.0246
aF-0.0242
aF-0.0262
aF-0.0243
aF-0.0252
aF-0.0248
aF-0.0237
aF-0.023
aF-0.0241
aF-0.0247
aF-0.0255
aF-0.0237
aF-0.0226
aF-0.0241
aF-0.0247
aF-0.0239
aF-0.0247
aF-0.0249
aF-0.0236
aF-0.0243
aF-0.0246
aF-0.0241
aF-0.025
aF-0.0241
aF-0.0243
aF-0.0235
aF-0.0245
aF-0.0248
aF-0.0256
aF-0.0252
aF-0.0246
aF-0.024
aF-0.0224
aF-0.024
aF-0.025
aF-0.0242
aF-0.024
aF-0.0247
aF-0.0245
aF-0.0241
aF-0.0245
aF-0.0242
aF-0.0255
aF-0.0238
aF-0.025
aF-0.0251
aF-0.0243
aF-0.025
aF-0.0241
aF-0.0244
aF-0.0249
aF-0.0252
aF-0.0258
aF-0.0285
aF-0.0287
aF-0.0279
aF-0.0284
aF-0.0278
aF-0.0271
aF-0.0279
aF-0.0284
aF-0.0272
aF-0.0278
aF-0.0275
aF-0.0283
aF-0.0278
aF-0.0286
aF-0.028
aF-0.0279
aF-0.0274
aF-0.0285
aF-0.0282
aF-0.0292
aF-0.0283
aF-0.0288
aF-0.0293
aF-0.0283
aF-0.0293
aF-0.0281
aF-0.027
aF-0.0261
aF-0.0285
aF-0.0294
aF-0.0279
aF-0.0278
aF-0.0275
aF-0.0272
aF-0.0275
aF-0.0298
aF-0.0275
aF-0.0289
aF-0.0277
aF-0.0277
aF-0.0278
aF-0.0282
aF-0.0283
aF-0.0271
aF-0.0273
aF-0.0282
aF-0.0285
aF-0.0282
aF-0.0283
aF-0.0277
aF-0.028
aF-0.0276
aF-0.0268
aF-0.029
aF-0.0268
aF-0.0276
aF-0.0279
aF-0.0272
aF-0.029
aF-0.0297
aF-0.0274
aF-0.0287
aF-0.0274
aF-0.0284
aF-0.0284
aF-0.0278
aF-0.0285
aF-0.0273
aF-0.0286
aF-0.0284
aF-0.0282
aF-0.0296
aF-0.0298
aF-0.0284
aF-0.0272
aF-0.0279
aF-0.0284
aF-0.029
aF-0.0278
aF-0.0276
aF-0.0285
aF-0.0293
aF-0.0282
aF-0.0295
aF-0.0283
aF-0.0288
aF-0.0277
aF-0.0278
aF-0.0266
aF-0.0298
aF-0.0265
aF-0.0278
aF-0.0288
aF-0.0273
aF-0.0281
aF-0.0286
aF-0.0286
aF-0.0279
aF-0.0277
aF-0.0284
aF-0.027
aF-0.0282
aF-0.0282
aF-0.0272
aF-0.0274
aF-0.0288
aF-0.029
aF-0.0291
aF-0.0284
aF-0.0273
aF-0.0282
aF-0.0282
aF-0.0281
aF-0.028
aF-0.0281
aF-0.0281
aF-0.0278
aF-0.0291
aF-0.0283
aF-0.0287
aF-0.0283
aF-0.0285
aF-0.0268
aF-0.027
aF-0.0278
aF-0.0293
aF-0.0285
aF-0.0266
aF-0.0279
aF-0.0284
aF-0.027
aF-0.0295
aF-0.0296
aF-0.0291
aF-0.0275
aF-0.0281
aF-0.0266
aF-0.0284
aF-0.0275
aF-0.0272
aF-0.0279
aF-0.0285
aF-0.0279
aF-0.0293
aF-0.0289
aF-0.0282
aF-0.0271
aF-0.0269
aF-0.028
aF-0.0286
aF-0.028
aF-0.027
aF-0.0277
aF-0.0283
aF-0.0291
aF-0.028
aF-0.0279
aF-0.0283
aF-0.0281
aF-0.0272
aF-0.0284
aF-0.0291
aF-0.0276
aF-0.028
aF-0.0277
aF-0.0282
aF-0.0287
aF-0.0285
aF-0.0286
aF-0.0275
aF-0.0286
aF-0.0278
aF-0.0273
aF-0.0294
aF-0.0283
aF-0.0281
aF-0.0286
aF-0.029
aF-0.0287
aF-0.0291
aF-0.0283
aF-0.0281
aF-0.0273
aF-0.0278
aF-0.0272
aF-0.0291
aF-0.0283
aF-0.0292
aF-0.0289
aF-0.0289
aF-0.0283
aF-0.0294
aF-0.0278
aF-0.0299
aF-0.0278
aF-0.0282
aF-0.0293
aF-0.0279
aF-0.0275
aF-0.0279
aF-0.0285
aF-0.0281
aF-0.0284
aF-0.0286
aF-0.0281
aF-0.029
aF-0.0289
aF-0.0283
aF-0.0281
aF-0.0287
aF-0.0286
aF-0.0276
aF-0.0286
aF-0.0276
aF-0.0281
aF-0.028
aF-0.0284
aF-0.0282
aF-0.028
aF-0.0277
aF-0.0286
aF-0.0266
aF-0.0284
aF-0.0277
aF-0.0267
aF-0.0292
aF-0.0293
aF-0.0283
aF-0.028
aF-0.0279
aF-0.0279
aF-0.0272
aF-0.0276
aF-0.0288
aF-0.029
aF-0.0275
aF-0.0268
aF-0.0281
aF-0.0281
aF-0.0297
aF-0.0286
aF-0.0269
aF-0.0284
aF-0.0276
aF-0.0284
aF-0.029
aF-0.0265
aF-0.029
aF-0.0281
aF-0.0276
aF-0.0282
aF-0.0281
aF-0.028
aF-0.0278
aF-0.0276
aF-0.0261
aF-0.0257
aF-0.0284
aF-0.0283
aF-0.0273
aF-0.0275
aF-0.0287
aF-0.0279
aF-0.0296
aF-0.0284
aF-0.0282
aF-0.0278
aF-0.0282
aF-0.0289
aF-0.0283
aF-0.028
aF-0.0278
aF-0.0286
aF-0.0278
aF-0.0286
aF-0.0278
aF-0.0283
aF-0.0282
aF-0.028
aF-0.0271
aF-0.0291
aF-0.0287
aF-0.0274
aF-0.0278
aF-0.0293
aF-0.0289
aF-0.0285
aF-0.0286
aF-0.0284
aF-0.0287
aF-0.0276
aF-0.0279
aF-0.0275
aF-0.028
aF-0.0273
aF-0.0282
aF-0.0278
aF-0.028
aF-0.0285
aF-0.0278
aF-0.0288
aF-0.0269
aF-0.0285
aF-0.0275
aF-0.027
aF-0.0276
aF-0.0279
aF-0.028
aF-0.0277
aF-0.0286
aF-0.0288
aF-0.0291
aF-0.0289
aF-0.028
aF-0.0269
aF-0.0277
aF-0.0275
aF-0.0288
aF-0.0287
aF-0.0271
aF-0.0284
aF-0.0279
aF-0.0283
aF-0.029
aF-0.0287
aF-0.027
aF-0.0275
aF-0.0272
aF-0.0276
aF-0.0287
aF-0.0277
aF-0.0278
aF-0.0287
aF-0.0288
aF-0.0287
aF-0.0292
aF-0.0284
aF-0.0276
aF-0.0284
aF-0.0276
aF-0.0285
aF-0.0295
aF-0.0285
aF-0.028
aF-0.0267
aF-0.0289
aF-0.0268
aF-0.029
aF-0.0278
aF-0.0271
aF-0.0267
aF-0.0276
aF-0.0273
aF-0.0272
aF-0.0281
aF-0.0274
aF-0.0286
aF-0.0285
aF-0.0289
aF-0.0279
asS'htune'
p9
(lp10
F25.399999547999997
aF25.32500069
asscnumpy.core.multiarray
scalar
p11
(cnumpy
dtype
p12
(S'i8'
p13
I0
I1
tp14
Rp15
(I3
S'<'
p16
NNNI-1
I-1
I0
tp17
bS'\x01\x00\x00\x00\x00\x00\x00\x00'
p18
tp19
Rp20
(dp21
S'i'
p22
I1
sS'vtune'
p23
(lp24
F24.450000784
aF24.450000784
asS'htune'
p25
(lp26
F25.399999547999997
aF25.32500069
asS'time'
p27
(lp28
F0.0013
aF0.0027
aF0.0041
aF0.0055
aF0.0069
aF0.0083
aF0.0096
aF0.011
aF0.0124
aF0.0138
aF0.0152
aF0.0166
aF0.018
aF0.0194
aF0.0208
aF0.0222
aF0.0235
aF0.0249
aF0.0263
aF0.0277
aF0.0291
aF0.0305
aF0.0319
aF0.0333
aF0.0347
aF0.036
aF0.0374
aF0.0388
aF0.0402
aF0.0416
aF0.043
aF0.0444
aF0.0458
aF0.0472
aF0.0485
aF0.0499
aF0.0513
aF0.0527
aF0.0541
aF0.0555
aF0.0569
aF0.0583
aF0.0597
aF0.061
aF0.0624
aF0.0638
aF0.0652
aF0.0666
aF0.068
aF0.0694
aF0.0708
aF0.0722
aF0.0735
aF0.0749
aF0.0763
aF0.0777
aF0.0791
aF0.0805
aF0.0819
aF0.0833
aF0.0847
aF0.0861
aF0.0874
aF0.0888
aF0.0902
aF0.0916
aF0.093
aF0.0944
aF0.0958
aF0.0972
aF0.0986
aF0.0999
aF0.1013
aF0.1027
aF0.1041
aF0.1055
aF0.1069
aF0.1083
aF0.1097
aF0.1111
aF0.1124
aF0.1138
aF0.1152
aF0.1166
aF0.118
aF0.1194
aF0.1208
aF0.1222
aF0.1236
aF0.1249
aF0.12630001
aF0.1277
aF0.12909999
aF0.1305
aF0.1319
aF0.13330001
aF0.1347
aF0.13609999
aF0.1374
aF0.1388
aF0.1402
aF0.1416
aF0.14300001
aF0.1444
aF0.14579999
aF0.1472
aF0.1486
aF0.15000001
aF0.1513
aF0.15270001
aF0.1541
aF0.15549999
aF0.1569
aF0.1583
aF0.15970001
aF0.1611
aF0.16249999
aF0.1638
aF0.1652
aF0.1666
aF0.168
aF0.16940001
aF0.1708
aF0.17219999
aF0.1736
aF0.175
aF0.1763
aF0.1777
aF0.17910001
aF0.1805
aF0.18189999
aF0.1833
aF0.1847
aF0.18610001
aF0.1875
aF0.18880001
aF0.1902
aF0.19159999
aF0.193
aF0.1944
aF0.19580001
aF0.1972
aF0.19859999
aF0.2
aF0.2014
aF0.2027
aF0.2041
aF0.20550001
aF0.2069
aF0.20829999
aF0.2097
aF0.2111
aF0.21250001
aF0.2139
aF0.21520001
aF0.2166
aF0.21799999
aF0.2194
aF0.2208
aF0.22220001
aF0.2236
aF0.22499999
aF0.2264
aF0.2277
aF0.2291
aF0.2305
aF0.23190001
aF0.2333
aF0.23469999
aF0.2361
aF0.2375
aF0.23890001
aF0.2402
aF0.24160001
aF0.243
aF0.24439999
aF0.2458
aF0.2472
aF0.24860001
aF0.25
aF0.25139999
aF0.25279999
aF0.25409999
aF0.25549999
aF0.25690001
aF0.25830001
aF0.2597
aF0.26109999
aF0.26249999
aF0.26390001
aF0.26530001
aF0.26660001
aF0.26800001
aF0.2694
aF0.27079999
aF0.27219999
aF0.27360001
aF0.27500001
aF0.2764
aF0.27779999
aF0.2791
aF0.28049999
aF0.28189999
aF0.28330001
aF0.28470001
aF0.2861
aF0.28749999
aF0.28889999
aF0.29030001
aF0.29159999
aF0.29300001
aF0.29440001
aF0.2958
aF0.29719999
aF0.29859999
aF0.30000001
aF0.30140001
aF0.3028
aF0.30410001
aF0.3055
aF0.30689999
aF0.30829999
aF0.30970001
aF0.31110001
aF0.3125
aF0.31389999
aF0.31529999
aF0.31659999
aF0.31799999
aF0.31940001
aF0.32080001
aF0.3222
aF0.32359999
aF0.32499999
aF0.32640001
aF0.32780001
aF0.3292
aF0.33050001
aF0.3319
aF0.33329999
aF0.33469999
aF0.33610001
aF0.33750001
aF0.3389
aF0.34029999
aF0.34169999
aF0.34299999
aF0.34439999
aF0.34580001
aF0.34720001
aF0.3486
aF0.34999999
aF0.35139999
aF0.35280001
aF0.35420001
aF0.35550001
aF0.35690001
aF0.3583
aF0.35969999
aF0.36109999
aF0.36250001
aF0.36390001
aF0.3653
aF0.36669999
aF0.36809999
aF0.36939999
aF0.37079999
aF0.37220001
aF0.37360001
aF0.375
aF0.37639999
aF0.37779999
aF0.37920001
aF0.38049999
aF0.38190001
aF0.38330001
aF0.3847
aF0.38609999
aF0.38749999
aF0.38890001
aF0.39030001
aF0.3917
aF0.39309999
aF0.3944
aF0.39579999
aF0.39719999
aF0.39860001
aF0.40000001
aF0.4014
aF0.40279999
aF0.40419999
aF0.40560001
aF0.40689999
aF0.40830001
aF0.40970001
aF0.4111
aF0.41249999
aF0.41389999
aF0.41530001
aF0.41670001
aF0.4181
aF0.41940001
aF0.4208
aF0.42219999
aF0.42359999
aF0.42500001
aF0.42640001
aF0.4278
aF0.42919999
aF0.43059999
aF0.43189999
aF0.43329999
aF0.43470001
aF0.43610001
aF0.4375
aF0.43889999
aF0.44029999
aF0.44170001
aF0.44310001
aF0.44440001
aF0.44580001
aF0.4472
aF0.44859999
aF0.44999999
aF0.45140001
aF0.45280001
aF0.4542
aF0.45559999
aF0.45699999
aF0.45829999
aF0.45969999
aF0.46110001
aF0.46250001
aF0.4639
aF0.46529999
aF0.46669999
aF0.46810001
aF0.46950001
aF0.47080001
aF0.47220001
aF0.4736
aF0.47499999
aF0.47639999
aF0.47780001
aF0.47920001
aF0.4806
aF0.48199999
aF0.4833
aF0.48469999
aF0.48609999
aF0.48750001
aF0.48890001
aF0.4903
aF0.49169999
aF0.49309999
aF0.49450001
aF0.49579999
aF0.49720001
aF0.49860001
aF0.5
aF0.50139999
aF0.50279999
aF0.50419998
aF0.50559998
aF0.50700003
aF0.50840002
aF0.5097
aF0.51109999
aF0.51249999
aF0.51389998
aF0.51529998
aF0.51670003
aF0.51810002
aF0.51950002
aF0.52090001
aF0.52219999
aF0.52359998
aF0.52499998
aF0.52640003
aF0.52780002
aF0.52920002
aF0.53060001
aF0.53200001
aF0.5334
aF0.53469998
aF0.53609997
aF0.53750002
aF0.53890002
aF0.54030001
aF0.54170001
aF0.5431
aF0.54449999
aF0.54589999
aF0.54720002
aF0.54860002
aF0.55000001
aF0.55140001
aF0.5528
aF0.55419999
aF0.55559999
aF0.55699998
aF0.55839998
aF0.55970001
aF0.56110001
aF0.5625
aF0.56389999
aF0.56529999
aF0.56669998
aF0.56809998
aF0.56950003
aF0.57090002
aF0.57230002
aF0.57359999
aF0.57499999
aF0.57639998
aF0.57779998
aF0.57920003
aF0.58060002
aF0.58200002
aF0.58340001
aF0.5848
aF0.58609998
aF0.58749998
aF0.58890003
aF0.59030002
aF0.59170002
aF0.59310001
aF0.59450001
aF0.5959
aF0.59729999
aF0.59859997
aF0.60000002
aF0.60140002
aF0.60280001
aF0.60420001
aF0.6056
aF0.60699999
aF0.60839999
aF0.60979998
aF0.61110002
aF0.61250001
aF0.61390001
aF0.6153
aF0.61669999
aF0.61809999
aF0.61949998
aF0.62089998
aF0.62230003
aF0.62360001
aF0.625
aF0.62639999
aF0.62779999
aF0.62919998
aF0.63059998
aF0.63200003
aF0.63340002
aF0.63480002
aF0.63620001
aF0.63749999
aF0.63889998
aF0.64029998
aF0.64170003
aF0.64310002
aF0.64450002
aF0.64590001
aF0.6473
aF0.6487
aF0.64999998
aF0.65140003
aF0.65280002
aF0.65420002
aF0.65560001
aF0.65700001
aF0.6584
aF0.65979999
aF0.66119999
aF0.66250002
aF0.66390002
aF0.66530001
aF0.66670001
aF0.6681
aF0.66949999
aF0.67089999
aF0.67229998
aF0.67369998
aF0.67500001
aF0.67640001
aF0.6778
aF0.67919999
aF0.68059999
aF0.68199998
aF0.68339998
aF0.68480003
aF0.68620002
aF0.6875
aF0.68889999
aF0.69029999
aF0.69169998
aF0.69309998
aF0.69450003
aF0.69590002
aF0.69730002
aF0.69870001
aF0.7001
aF0.70139998
aF0.70279998
aF0.70420003
aF0.70560002
aF0.70700002
aF0.70840001
aF0.7098
aF0.7112
aF0.71259999
aF0.71390003
aF0.71530002
aF0.71670002
aF0.71810001
aF0.71950001
aF0.7209
aF0.72229999
aF0.72369999
aF0.72509998
aF0.72640002
aF0.72780001
aF0.72920001
aF0.7306
aF0.73199999
aF0.73339999
aF0.73479998
aF0.73619998
aF0.73760003
aF0.73890001
aF0.7403
aF0.74169999
aF0.74309999
aF0.74449998
aF0.74589998
aF0.74730003
aF0.74870002
aF0.75010002
aF0.75139999
aF0.75279999
aF0.75419998
aF0.75559998
aF0.75700003
aF0.75840002
aF0.75980002
aF0.76120001
aF0.7626
aF0.764
aF0.76529998
aF0.76670003
aF0.76810002
aF0.76950002
aF0.77090001
aF0.7723
aF0.7737
aF0.77509999
aF0.77649999
aF0.77780002
aF0.77920002
aF0.78060001
aF0.78200001
aF0.7834
aF0.78479999
aF0.78619999
aF0.78759998
aF0.78899997
aF0.79030001
aF0.79170001
aF0.7931
aF0.79449999
aF0.79589999
aF0.79729998
aF0.79869998
aF0.80010003
aF0.80150002
aF0.8028
aF0.80419999
aF0.80559999
aF0.80699998
aF0.80839998
aF0.80980003
aF0.81120002
aF0.81260002
aF0.81400001
aF0.8154
aF0.81669998
aF0.81809998
aF0.81950003
aF0.82090002
aF0.82230002
aF0.82370001
aF0.8251
aF0.8265
aF0.82789999
aF0.82920003
aF0.83060002
aF0.83200002
aF0.83340001
aF0.8348
aF0.8362
aF0.83759999
aF0.83899999
aF0.84039998
aF0.84170002
aF0.84310001
aF0.84450001
aF0.8459
aF0.84729999
aF0.84869999
aF0.85009998
aF0.85149997
aF0.85290003
aF0.85420001
aF0.8556
aF0.85699999
aF0.85839999
aF0.85979998
aF0.86119998
aF0.86260003
aF0.86400002
aF0.86540002
aF0.86669999
aF0.86809999
aF0.86949998
aF0.87089998
aF0.87230003
aF0.87370002
aF0.87510002
aF0.87650001
aF0.8779
aF0.8793
aF0.88059998
aF0.88200003
aF0.88340002
aF0.88480002
aF0.88620001
aF0.8876
aF0.889
aF0.89039999
aF0.89179999
aF0.89310002
aF0.89450002
aF0.89590001
aF0.8973
aF0.8987
aF0.90009999
aF0.90149999
aF0.90289998
aF0.90429997
aF0.90560001
aF0.90700001
aF0.9084
aF0.90979999
aF0.91119999
aF0.91259998
aF0.91399997
aF0.91540003
aF0.91680002
aF0.9181
aF0.91949999
aF0.92089999
aF0.92229998
aF0.92369998
aF0.92510003
aF0.92650002
aF0.92790002
aF0.92930001
aF0.93059999
aF0.93199998
aF0.93339998
aF0.93480003
aF0.93620002
aF0.93760002
aF0.93900001
aF0.9404
aF0.9418
aF0.94319999
aF0.94450003
aF0.94450003
aF0.94590002
aF0.94730002
aF0.9501
aF0.9515
aF0.95289999
aF0.95429999
aF0.95569998
aF0.95700002
aF0.95700002
aF0.95840001
aF0.9598
aF0.96259999
aF0.96259999
aF0.96399999
aF0.96679997
aF0.96820003
aF0.96950001
aF0.9709
aF0.97229999
aF0.97369999
aF0.97369999
aF0.97509998
aF0.97649997
aF0.97790003
aF0.97930002
aF0.98070002
aF0.98339999
aF0.98479998
aF0.98619998
aF0.98760003
aF0.98900002
aF0.99040002
aF0.99040002
aF0.99180001
aF0.9932
aF0.9946
aF0.99589998
aF0.99730003
aF1.0001
aF1.0015
aF1.0029
aF1.0043
aF1.0057
aF1.0071
aF1.0071
aF1.0084
aF1.0098
aF1.0112
aF1.0125999
aF1.0140001
aF1.0168
aF1.0182
aF1.0196
aF1.0209
aF1.0223
aF1.0237
aF1.0237
aF1.0251
aF1.0265
aF1.0279
aF1.0293
aF1.0307
aF1.0334001
aF1.0348001
aF1.0362
aF1.0376
aF1.039
aF1.0404
aF1.0404
aF1.0418
aF1.0432
aF1.0446
aF1.0459
aF1.0473
aF1.0501
aF1.0515
aF1.0529
aF1.0543
aF1.0556999
aF1.0571001
aF1.0571001
aF1.0584
aF1.0598
aF1.0612
aF1.0626
aF1.064
aF1.0668
aF1.0682
aF1.0696
aF1.071
aF1.0723
aF1.0737
aF1.0737
aF1.0750999
aF1.0765001
aF1.0779001
aF1.0793
aF1.0807
aF1.0835
aF1.0849
aF1.0862
aF1.0876
aF1.089
aF1.0904
aF1.0904
aF1.0918
aF1.0932
aF1.0946
aF1.096
aF1.0973001
aF1.1001
aF1.1015
aF1.1029
aF1.1043
aF1.1057
aF1.1071
aF1.1071
aF1.1085
aF1.1098
aF1.1112
aF1.1126
aF1.114
aF1.1168
aF1.1181999
aF1.1181999
aF1.1196001
aF1.1210001
aF1.1224
aF1.1237
aF1.1251
aF1.1265
aF1.1279
aF1.1293
aF1.1307
aF1.1321
aF1.1349
aF1.1349
aF1.1363
aF1.1375999
aF1.1390001
aF1.1404001
aF1.1418
aF1.1432
aF1.1446
aF1.146
aF1.1474
aF1.1487
aF1.1501
aF1.1516
aF1.1529
aF1.1543
aF1.1557
aF1.1571
aF1.1585
aF1.1599
aF1.1612
aF1.1626
aF1.164
aF1.1654
aF1.1668
aF1.1682
aF1.1696
aF1.171
aF1.1724
aF1.1737
aF1.1751
aF1.1765
aF1.1779
aF1.1793
aF1.1806999
aF1.1821001
aF1.1835001
aF1.1849
aF1.1863
aF1.1876
aF1.189
aF1.1904
aF1.1918
aF1.1932
aF1.1946
aF1.196
aF1.1974
aF1.1988
aF1.2015001
aF1.2015001
aF1.2029001
aF1.2043
aF1.2057
aF1.2071
aF1.2085
aF1.2099
aF1.2113
aF1.2126
aF1.214
aF1.2154
aF1.2168
aF1.2182
aF1.2196
aF1.221
aF1.2224
aF1.2237999
aF1.2251
aF1.2265
aF1.2279
aF1.2293
aF1.2307
aF1.2321
aF1.2335
aF1.2349
aF1.2363
aF1.2376
aF1.239
aF1.2404
aF1.2418
aF1.2431999
aF1.2446001
aF1.2460001
aF1.2474
aF1.2488
aF1.2502
aF1.2516
aF1.2529
aF1.2543
aF1.2557
aF1.2571
aF1.2585
aF1.2599
aF1.2613
aF1.2627
aF1.2640001
aF1.2654001
aF1.2668
aF1.2682
aF1.2696
aF1.271
aF1.2724
aF1.2738
aF1.2752
aF1.2765
aF1.2779
aF1.2793
aF1.2807
aF1.2821
aF1.2835
aF1.2849
aF1.2862999
aF1.2877001
aF1.289
aF1.2904
aF1.2918
aF1.2932
aF1.2946
aF1.296
aF1.2974
aF1.2988
asS'beam'
p29
(lp30
F-0.0284
aF-0.0278
aF-0.0278
aF-0.0277
aF-0.0285
aF-0.0278
aF-0.0292
aF-0.0283
aF-0.0291
aF-0.0278
aF-0.0285
aF-0.0283
aF-0.0279
aF-0.0273
aF-0.0285
aF-0.0288
aF-0.028
aF-0.0278
aF-0.0276
aF-0.0266
aF-0.0279
aF-0.0285
aF-0.0287
aF-0.0275
aF-0.0291
aF-0.0277
aF0.2806
aF0.8269
aF0.8302
aF0.829
aF0.8325
aF0.8309
aF0.8298
aF0.8307
aF0.8289
aF0.8284
aF0.8313
aF0.8313
aF0.8301
aF0.8297
aF0.8298
aF0.8305
aF0.8296
aF0.8314
aF0.8293
aF0.8298
aF0.8297
aF0.8294
aF0.8301
aF0.8294
aF0.8296
aF0.8294
aF0.8286
aF0.8288
aF0.828
aF0.829
aF0.829
aF0.8274
aF0.8275
aF0.8284
aF0.8278
aF0.8294
aF0.8288
aF0.8276
aF0.8281
aF0.8276
aF0.8286
aF0.8292
aF0.8287
aF0.8271
aF0.8276
aF0.8271
aF0.8278
aF0.8275
aF0.8276
aF0.8276
aF0.8275
aF0.8262
aF0.8265
aF0.8263
aF0.8256
aF0.8258
aF0.8262
aF0.8259
aF0.8275
aF0.8262
aF0.8262
aF0.8269
aF0.8261
aF0.8258
aF0.8253
aF0.8259
aF0.8252
aF0.8256
aF0.8256
aF0.8239
aF0.8253
aF0.8259
aF0.8253
aF0.8252
aF0.8251
aF0.8234
aF0.8256
aF0.8246
aF0.826
aF0.8236
aF0.8255
aF0.8247
aF0.8249
aF0.8256
aF0.8262
aF0.8262
aF0.8255
aF0.8246
aF0.826
aF0.8258
aF0.824
aF0.8242
aF0.8255
aF0.8243
aF0.8241
aF0.8248
aF0.8271
aF0.8249
aF0.8255
aF0.8253
aF0.8253
aF0.8258
aF0.8245
aF0.8258
aF0.8251
aF0.8257
aF0.825
aF0.8244
aF0.8238
aF0.8266
aF0.825
aF0.824
aF0.8259
aF0.8242
aF0.8249
aF0.8251
aF0.8235
aF0.823
aF0.8252
aF0.8248
aF0.8257
aF0.8249
aF0.824
aF0.8235
aF0.8252
aF0.8243
aF0.8248
aF0.8242
aF0.8239
aF0.8241
aF0.8245
aF0.8233
aF0.825
aF0.8241
aF0.825
aF0.8232
aF0.824
aF0.825
aF0.8248
aF0.8223
aF0.8235
aF0.8238
aF0.823
aF0.825
aF0.8249
aF0.8255
aF0.8241
aF0.8237
aF0.8251
aF0.8233
aF0.8241
aF0.8233
aF0.8232
aF0.8239
aF0.8239
aF0.8246
aF0.8236
aF0.8238
aF0.8229
aF0.8244
aF0.8236
aF0.8243
aF0.8224
aF0.8229
aF0.8234
aF0.8227
aF0.8234
aF0.8247
aF0.8231
aF0.822
aF0.823
aF0.8234
aF0.8224
aF0.8233
aF0.8229
aF0.8227
aF0.8225
aF0.8226
aF0.822
aF0.8231
aF0.8241
aF0.823
aF0.8221
aF0.8223
aF0.8227
aF0.8243
aF0.823
aF0.8229
aF0.8218
aF0.8236
aF0.8217
aF0.823
aF0.8233
aF0.8231
aF0.8222
aF0.8217
aF0.8221
aF0.8229
aF0.8234
aF0.8219
aF0.8246
aF0.8231
aF0.8222
aF0.8241
aF0.8224
aF0.8229
aF0.823
aF0.8228
aF0.8222
aF0.8228
aF0.8218
aF0.8224
aF0.8211
aF0.8218
aF0.8226
aF0.821
aF0.8227
aF0.8236
aF0.8226
aF0.8215
aF0.822
aF0.8232
aF0.8234
aF0.8209
aF0.8235
aF0.8212
aF0.8223
aF0.8229
aF0.823
aF0.8235
aF0.8211
aF0.821
aF0.8232
aF0.8226
aF0.8222
aF0.8237
aF0.8223
aF0.8218
aF0.8223
aF0.8217
aF0.8234
aF0.823
aF0.8222
aF0.8211
aF0.8213
aF0.823
aF0.8231
aF0.822
aF0.8222
aF0.8208
aF0.822
aF0.823
aF0.8223
aF0.8239
aF0.8216
aF0.8218
aF0.8221
aF0.8226
aF0.8225
aF0.8217
aF0.8219
aF0.8216
aF0.8227
aF0.8223
aF0.8225
aF0.8227
aF0.822
aF0.8221
aF0.8222
aF0.823
aF0.8224
aF0.8224
aF0.8217
aF0.8209
aF0.8212
aF0.8218
aF0.8236
aF0.8222
aF0.821
aF0.821
aF0.8207
aF0.8221
aF0.8221
aF0.8204
aF0.8216
aF0.8195
aF0.82
aF0.8226
aF0.822
aF0.8218
aF0.8213
aF0.8216
aF0.8215
aF0.8218
aF0.8205
aF0.8214
aF0.8213
aF0.8218
aF0.8199
aF0.8212
aF0.822
aF0.8228
aF0.8214
aF0.8211
aF0.8214
aF0.8224
aF0.8212
aF0.8212
aF0.8203
aF0.8211
aF0.8209
aF0.8208
aF0.8206
aF0.821
aF0.8209
aF0.8201
aF0.8208
aF0.8203
aF0.8202
aF0.8197
aF0.8186
aF0.8182
aF0.8206
aF0.818
aF0.8196
aF0.8186
aF0.8187
aF0.8184
aF0.8166
aF0.816
aF0.8143
aF0.814
aF0.8135
aF0.8122
aF0.8131
aF0.8117
aF0.811
aF0.8092
aF0.8069
aF0.8067
aF0.8038
aF0.8013
aF0.7993
aF0.796
aF0.7945
aF0.792
aF0.7902
aF0.7881
aF0.7855
aF0.7821
aF0.7774
aF0.7691
aF0.7615
aF0.7564
aF0.7501
aF0.7452
aF0.7416
aF0.7373
aF0.734
aF0.7299
aF0.7218
aF0.7142
aF0.7047
aF0.6934
aF0.6799
aF0.6712
aF0.6638
aF0.657
aF0.6476
aF0.6443
aF0.6414
aF0.6363
aF0.625
aF0.614
aF0.5972
aF0.5727
aF0.5346
aF0.5076
aF0.494
aF0.4838
aF0.4707
aF0.46
aF0.4559
aF0.4476
aF0.4285
aF0.4055
aF0.3813
aF0.3422
aF0.2931
aF0.2579
aF0.243
aF0.2301
aF0.2115
aF0.1989
aF0.1936
aF0.1844
aF0.1645
aF0.1423
aF0.1229
aF0.0973
aF0.0682
aF0.0508
aF0.0422
aF0.0371
aF0.0303
aF0.0256
aF0.0233
aF0.019
aF0.0118
aF0.0051
aF0.001
aF-0.0057
aF-0.0093
aF-0.0111
aF-0.014
aF-0.0154
aF-0.016
aF-0.0173
aF-0.017
aF-0.0172
aF-0.0175
aF-0.0185
aF-0.0195
aF-0.0217
aF-0.0207
aF-0.0211
aF-0.0223
aF-0.0233
aF-0.0228
aF-0.0229
aF-0.0215
aF-0.0216
aF-0.0231
aF-0.0224
aF-0.0239
aF-0.0227
aF-0.0221
aF-0.0234
aF-0.0235
aF-0.0243
aF-0.0235
aF-0.0248
aF-0.0239
aF-0.0223
aF-0.0231
aF-0.0217
aF-0.0236
aF-0.024
aF-0.0231
aF-0.0227
aF-0.023
aF-0.025
aF-0.025
aF-0.0236
aF-0.0247
aF-0.0238
aF-0.0231
aF-0.0236
aF-0.0233
aF-0.0253
aF-0.0236
aF-0.0243
aF-0.0241
aF-0.0245
aF-0.0252
aF-0.0244
aF-0.0239
aF-0.0239
aF-0.0227
aF-0.0231
aF-0.0242
aF-0.0245
aF-0.0245
aF-0.0236
aF-0.0238
aF-0.0251
aF-0.0243
aF-0.0242
aF-0.0232
aF-0.025
aF-0.0235
aF-0.0233
aF-0.0237
aF-0.0237
aF-0.0246
aF-0.024
aF-0.0247
aF-0.024
aF-0.0251
aF-0.0255
aF-0.0229
aF-0.0249
aF-0.0233
aF-0.0239
aF-0.0232
aF-0.0246
aF-0.0258
aF-0.0234
aF-0.0244
aF-0.025
aF-0.0249
aF-0.0241
aF-0.025
aF-0.025
aF-0.0246
aF-0.0244
aF-0.0251
aF-0.0232
aF-0.0236
aF-0.0241
aF-0.0236
aF-0.0245
aF-0.0246
aF-0.0246
aF-0.024
aF-0.025
aF-0.0246
aF-0.0236
aF-0.0246
aF-0.0234
aF-0.0239
aF-0.0237
aF-0.0241
aF-0.0254
aF-0.0243
aF-0.0244
aF-0.0252
aF-0.0237
aF-0.0238
aF-0.0239
aF-0.0235
aF-0.0249
aF-0.0241
aF-0.025
aF-0.0251
aF-0.0254
aF-0.0248
aF-0.0245
aF-0.0251
aF-0.0244
aF-0.0232
aF-0.0238
aF-0.0243
aF-0.024
aF-0.0234
aF-0.0239
aF-0.0246
aF-0.0247
aF-0.0238
aF-0.0272
aF-0.0267
aF-0.0284
aF-0.0273
aF-0.0277
aF-0.0275
aF-0.029
aF-0.0282
aF-0.0266
aF-0.0276
aF-0.0272
aF-0.0275
aF-0.0278
aF-0.0282
aF-0.0266
aF-0.0267
aF-0.0276
aF-0.0284
aF-0.0268
aF-0.0281
aF-0.0278
aF-0.0278
aF-0.0284
aF-0.0277
aF-0.0266
aF-0.0274
aF-0.0283
aF-0.0261
aF-0.0268
aF-0.0289
aF-0.0285
aF-0.0276
aF-0.0263
aF-0.0282
aF-0.0277
aF-0.0282
aF-0.0293
aF-0.0277
aF-0.0286
aF-0.0261
aF-0.0273
aF-0.0285
aF-0.0279
aF-0.0281
aF-0.0267
aF-0.0277
aF-0.028
aF-0.0275
aF-0.0281
aF-0.0272
aF-0.0266
aF-0.0265
aF-0.0284
aF-0.0281
aF-0.0278
aF-0.028
aF-0.0274
aF-0.0283
aF-0.0282
aF-0.0305
aF-0.0275
aF-0.0292
aF-0.0283
aF-0.0265
aF-0.0273
aF-0.0294
aF-0.0279
aF-0.0282
aF-0.0263
aF-0.0277
aF-0.0286
aF-0.029
aF-0.0282
aF-0.0279
aF-0.0275
aF-0.0282
aF-0.0275
aF-0.0286
aF-0.029
aF-0.0283
aF-0.0281
aF-0.0277
aF-0.0288
aF-0.0276
aF-0.028
aF-0.0273
aF-0.028
aF-0.0262
aF-0.0287
aF-0.0271
aF-0.0289
aF-0.0291
aF-0.0265
aF-0.0279
aF-0.0287
aF-0.0276
aF-0.0281
aF-0.0278
aF-0.0279
aF-0.0284
aF-0.0273
aF-0.0286
aF-0.028
aF-0.0286
aF-0.0277
aF-0.0277
aF-0.0285
aF-0.0291
aF-0.03
aF-0.029
aF-0.029
aF-0.0278
aF-0.0274
aF-0.0277
aF-0.0277
aF-0.0288
aF-0.0273
aF-0.0275
aF-0.0275
aF-0.0274
aF-0.028
aF-0.028
aF-0.0266
aF-0.028
aF-0.0268
aF-0.0279
aF-0.0279
aF-0.0272
aF-0.028
aF-0.026
aF-0.0275
aF-0.0285
aF-0.0275
aF-0.0292
aF-0.0288
aF-0.0274
aF-0.0283
aF-0.0279
aF-0.0279
aF-0.0278
aF-0.0272
aF-0.0273
aF-0.0272
aF-0.0285
aF-0.0285
aF-0.0275
aF-0.0285
aF-0.0271
aF-0.0251
aF-0.0275
aF-0.0275
aF-0.0284
aF-0.0273
aF-0.0273
aF-0.0278
aF-0.0283
aF-0.028
aF-0.0277
aF-0.0273
aF-0.0267
aF-0.0278
aF-0.0271
aF-0.0271
aF-0.029
aF-0.0269
aF-0.0277
aF-0.0265
aF-0.0281
aF-0.0292
aF-0.0275
aF-0.0279
aF-0.028
aF-0.0281
aF-0.0275
aF-0.0275
aF-0.0284
aF-0.0275
aF-0.0272
aF-0.0281
aF-0.0287
aF-0.0289
aF-0.028
aF-0.0287
aF-0.0272
aF-0.0266
aF-0.0274
aF-0.0274
aF-0.0274
aF-0.0279
aF-0.0266
aF-0.0273
aF-0.0273
aF-0.0279
aF-0.0281
aF-0.0276
aF-0.0283
aF-0.0274
aF-0.0281
aF-0.0281
aF-0.0284
aF-0.0276
aF-0.0272
aF-0.0287
aF-0.0287
aF-0.0292
aF-0.0287
aF-0.0279
aF-0.0271
aF-0.0285
aF-0.029
aF-0.029
aF-0.0278
aF-0.0293
aF-0.0282
aF-0.028
aF-0.0293
aF-0.0297
aF-0.0272
aF-0.028
aF-0.0276
aF-0.0279
aF-0.0284
aF-0.0284
aF-0.0273
aF-0.0274
aF-0.0278
aF-0.0274
aF-0.028
aF-0.028
aF-0.0285
aF-0.0285
aF-0.0278
aF-0.0276
aF-0.0277
aF-0.0276
aF-0.0281
aF-0.0266
aF-0.029
aF-0.0284
aF-0.0282
aF-0.029
aF-0.0287
aF-0.0287
aF-0.0288
aF-0.0276
aF-0.0282
aF-0.0281
aF-0.0273
aF-0.0297
aF-0.0273
aF-0.0283
aF-0.028
aF-0.0285
aF-0.0287
aF-0.0272
aF-0.0281
aF-0.0274
aF-0.0282
aF-0.028
aF-0.0274
aF-0.0275
aF-0.0271
aF-0.0285
aF-0.0276
aF-0.0276
aF-0.0299
aF-0.0278
aF-0.0265
aF-0.028
aF-0.0275
aF-0.0282
aF-0.0288
aF-0.0281
aF-0.0272
aF-0.0274
aF-0.0282
aF-0.0284
aF-0.0285
aF-0.0273
aF-0.0287
aF-0.0276
aF-0.0268
aF-0.0272
aF-0.0285
aF-0.0281
aF-0.0279
aF-0.0277
aF-0.0289
aF-0.0275
aF-0.0287
aF-0.0287
aF-0.0274
aF-0.0274
aF-0.0265
aF-0.028
aF-0.0279
aF-0.0279
aF-0.028
aF-0.0277
aF-0.0287
aF-0.028
aF-0.0284
aF-0.0281
aF-0.0266
aF-0.0289
aF-0.0276
aF-0.0286
aF-0.0291
aF-0.0278
aF-0.0264
aF-0.0288
aF-0.0276
aF-0.0285
aF-0.0285
aF-0.0277
aF-0.0275
aF-0.0285
aF-0.0273
aF-0.0283
aF-0.0276
aF-0.0268
aF-0.0277
aF-0.0273
aF-0.029
aF-0.0279
aF-0.0282
aF-0.028
aF-0.0273
aF-0.0275
aF-0.0269
aF-0.0289
aF-0.0278
aF-0.0268
aF-0.0263
aF-0.0282
aF-0.029
aF-0.0291
aF-0.0281
aF-0.0281
aF-0.0266
aF-0.0283
aF-0.0282
aF-0.0283
aF-0.0284
aF-0.0279
aF-0.0274
aF-0.0285
aF-0.0273
aF-0.029
aF-0.0287
aF-0.0273
aF-0.0285
aF-0.0263
aF-0.0276
aF-0.0282
aF-0.0272
aF-0.0285
aF-0.0271
aF-0.0285
aF-0.0272
aF-0.0285
assg11
(g15
S'\x02\x00\x00\x00\x00\x00\x00\x00'
p31
tp32
Rp33
(dp34
S'vtune'
p35
(lp36
F24.450000784
aF24.450000784
asS'beam'
p37
(lp38
F-0.0293
aF-0.0276
aF-0.0267
aF-0.0265
aF-0.0264
aF-0.0285
aF-0.0277
aF-0.027
aF-0.0279
aF-0.028
aF-0.0275
aF-0.0286
aF-0.0284
aF-0.0278
aF-0.0259
aF-0.0279
aF-0.0271
aF-0.028
aF-0.0269
aF-0.0264
aF-0.0283
aF-0.0281
aF-0.0276
aF-0.0285
aF-0.028
aF-0.0261
aF0.3745
aF0.8323
aF0.8334
aF0.8322
aF0.8339
aF0.8333
aF0.8322
aF0.8325
aF0.8315
aF0.8325
aF0.834
aF0.8319
aF0.8336
aF0.8336
aF0.8332
aF0.8323
aF0.8332
aF0.833
aF0.8336
aF0.8329
aF0.8318
aF0.8324
aF0.832
aF0.8325
aF0.8329
aF0.8329
aF0.8334
aF0.8315
aF0.8326
aF0.8332
aF0.833
aF0.8309
aF0.8318
aF0.8315
aF0.8299
aF0.8317
aF0.8319
aF0.8324
aF0.831
aF0.8306
aF0.8307
aF0.8315
aF0.8309
aF0.83
aF0.8301
aF0.8295
aF0.8313
aF0.8305
aF0.8314
aF0.8305
aF0.8307
aF0.8299
aF0.8304
aF0.8293
aF0.8302
aF0.83
aF0.8291
aF0.8291
aF0.8294
aF0.8285
aF0.8292
aF0.829
aF0.8294
aF0.8277
aF0.8302
aF0.8303
aF0.8289
aF0.8288
aF0.827
aF0.8283
aF0.8293
aF0.8284
aF0.8305
aF0.8285
aF0.8279
aF0.8274
aF0.8293
aF0.8281
aF0.8288
aF0.8275
aF0.8278
aF0.8278
aF0.8282
aF0.8282
aF0.8288
aF0.8297
aF0.8291
aF0.8299
aF0.8277
aF0.8285
aF0.8296
aF0.8291
aF0.8283
aF0.829
aF0.829
aF0.8288
aF0.8288
aF0.8279
aF0.8274
aF0.8288
aF0.828
aF0.8289
aF0.8288
aF0.8268
aF0.8275
aF0.8281
aF0.8285
aF0.8281
aF0.829
aF0.8285
aF0.8279
aF0.828
aF0.8278
aF0.8289
aF0.8284
aF0.8271
aF0.8286
aF0.8263
aF0.8271
aF0.8288
aF0.829
aF0.8289
aF0.8272
aF0.8275
aF0.827
aF0.8287
aF0.8276
aF0.8274
aF0.8271
aF0.827
aF0.8276
aF0.8276
aF0.8281
aF0.8277
aF0.8273
aF0.8271
aF0.8278
aF0.8279
aF0.8268
aF0.8277
aF0.8258
aF0.8274
aF0.827
aF0.8267
aF0.8265
aF0.8273
aF0.827
aF0.8266
aF0.828
aF0.8273
aF0.8273
aF0.8265
aF0.8262
aF0.8264
aF0.8266
aF0.8277
aF0.8255
aF0.8265
aF0.827
aF0.8254
aF0.8268
aF0.8269
aF0.8262
aF0.8268
aF0.8259
aF0.8271
aF0.8267
aF0.8261
aF0.8264
aF0.8278
aF0.8262
aF0.8256
aF0.8257
aF0.8269
aF0.8258
aF0.826
aF0.8252
aF0.8256
aF0.8258
aF0.8268
aF0.826
aF0.8265
aF0.8251
aF0.8258
aF0.8266
aF0.8259
aF0.8263
aF0.8253
aF0.825
aF0.8246
aF0.8251
aF0.8254
aF0.8282
aF0.8267
aF0.8265
aF0.8253
aF0.8244
aF0.8268
aF0.826
aF0.8244
aF0.8248
aF0.8252
aF0.8252
aF0.827
aF0.8259
aF0.8257
aF0.8256
aF0.8249
aF0.8268
aF0.8256
aF0.825
aF0.8248
aF0.8267
aF0.8256
aF0.8253
aF0.8266
aF0.8264
aF0.8259
aF0.825
aF0.8249
aF0.8255
aF0.8262
aF0.8248
aF0.8256
aF0.825
aF0.8265
aF0.8243
aF0.8271
aF0.8251
aF0.8267
aF0.8248
aF0.8255
aF0.8267
aF0.8259
aF0.8255
aF0.8259
aF0.8256
aF0.8252
aF0.8255
aF0.826
aF0.8273
aF0.8247
aF0.8253
aF0.825
aF0.8257
aF0.8255
aF0.8261
aF0.8252
aF0.8264
aF0.8254
aF0.8256
aF0.8254
aF0.8267
aF0.8259
aF0.8259
aF0.8252
aF0.8259
aF0.8259
aF0.8256
aF0.8258
aF0.8242
aF0.8243
aF0.8259
aF0.8248
aF0.8255
aF0.8244
aF0.8256
aF0.8248
aF0.8245
aF0.8254
aF0.825
aF0.8237
aF0.8242
aF0.824
aF0.8238
aF0.8242
aF0.8247
aF0.8238
aF0.825
aF0.8244
aF0.8235
aF0.8251
aF0.8239
aF0.8248
aF0.8241
aF0.8241
aF0.825
aF0.8244
aF0.825
aF0.8252
aF0.8251
aF0.8242
aF0.8248
aF0.824
aF0.8246
aF0.8242
aF0.8237
aF0.8251
aF0.823
aF0.8252
aF0.8258
aF0.8249
aF0.824
aF0.8237
aF0.8247
aF0.8239
aF0.8239
aF0.8236
aF0.8239
aF0.8236
aF0.8238
aF0.8234
aF0.8233
aF0.8232
aF0.8235
aF0.8224
aF0.8235
aF0.8226
aF0.8221
aF0.8212
aF0.8214
aF0.8204
aF0.8199
aF0.8205
aF0.82
aF0.8199
aF0.8185
aF0.8168
aF0.8172
aF0.8162
aF0.8161
aF0.8141
aF0.8121
aF0.8122
aF0.8115
aF0.8111
aF0.8096
aF0.8086
aF0.807
aF0.8043
aF0.8018
aF0.8009
aF0.7984
aF0.7952
aF0.7927
aF0.7911
aF0.7885
aF0.7871
aF0.7846
aF0.7808
aF0.7758
aF0.7714
aF0.7644
aF0.7587
aF0.7546
aF0.7511
aF0.7464
aF0.7433
aF0.7418
aF0.738
aF0.7318
aF0.7265
aF0.7194
aF0.7107
aF0.7003
aF0.6901
aF0.6836
aF0.6754
aF0.6663
aF0.6624
aF0.658
aF0.6528
aF0.6418
aF0.6271
aF0.6117
aF0.5849
aF0.5477
aF0.5202
aF0.5076
aF0.497
aF0.482
aF0.4722
aF0.4682
aF0.4621
aF0.447
aF0.4278
aF0.4107
aF0.3825
aF0.3291
aF0.2791
aF0.2543
aF0.2376
aF0.2173
aF0.2058
aF0.2009
aF0.1917
aF0.174
aF0.1494
aF0.1293
aF0.1025
aF0.0683
aF0.0432
aF0.0354
aF0.0304
aF0.0235
aF0.019
aF0.0202
aF0.0162
aF0.0111
aF0.0047
aF-0.0001
aF-0.004
aF-0.0086
aF-0.0109
aF-0.0131
aF-0.0143
aF-0.0159
aF-0.0162
aF-0.0174
aF-0.0174
aF-0.0166
aF-0.019
aF-0.0192
aF-0.0201
aF-0.0203
aF-0.0198
aF-0.0218
aF-0.0224
aF-0.0221
aF-0.0231
aF-0.0206
aF-0.0228
aF-0.0222
aF-0.0224
aF-0.022
aF-0.0227
aF-0.022
aF-0.0227
aF-0.023
aF-0.0231
aF-0.0232
aF-0.0227
aF-0.0219
aF-0.0233
aF-0.0227
aF-0.0232
aF-0.0228
aF-0.0245
aF-0.0233
aF-0.0224
aF-0.0233
aF-0.0239
aF-0.023
aF-0.0248
aF-0.0233
aF-0.0231
aF-0.023
aF-0.0209
aF-0.0224
aF-0.0228
aF-0.023
aF-0.0232
aF-0.0231
aF-0.0239
aF-0.0244
aF-0.0243
aF-0.0236
aF-0.0233
aF-0.022
aF-0.0226
aF-0.023
aF-0.0235
aF-0.0226
aF-0.0228
aF-0.0235
aF-0.0228
aF-0.0243
aF-0.0242
aF-0.0235
aF-0.0233
aF-0.0245
aF-0.0239
aF-0.0232
aF-0.0229
aF-0.0236
aF-0.0225
aF-0.023
aF-0.0252
aF-0.0233
aF-0.023
aF-0.0238
aF-0.0243
aF-0.0237
aF-0.0234
aF-0.0236
aF-0.0232
aF-0.0231
aF-0.0224
aF-0.0242
aF-0.0232
aF-0.0235
aF-0.0244
aF-0.0235
aF-0.0233
aF-0.0236
aF-0.0213
aF-0.0232
aF-0.0227
aF-0.0238
aF-0.0239
aF-0.0229
aF-0.0232
aF-0.0233
aF-0.0235
aF-0.0233
aF-0.0236
aF-0.0238
aF-0.0213
aF-0.0239
aF-0.0239
aF-0.0228
aF-0.0239
aF-0.0216
aF-0.0229
aF-0.0247
aF-0.0246
aF-0.0229
aF-0.0229
aF-0.0227
aF-0.0236
aF-0.0231
aF-0.0234
aF-0.0239
aF-0.0232
aF-0.0229
aF-0.0234
aF-0.0226
aF-0.0232
aF-0.0235
aF-0.0235
aF-0.0222
aF-0.0226
aF-0.0235
aF-0.0237
aF-0.0223
aF-0.0216
aF-0.0236
aF-0.0233
aF-0.0229
aF-0.025
aF-0.0266
aF-0.0262
aF-0.0275
aF-0.0275
aF-0.0266
aF-0.0276
aF-0.0281
aF-0.0263
aF-0.0277
aF-0.0267
aF-0.0284
aF-0.0287
aF-0.0265
aF-0.0279
aF-0.0268
aF-0.0265
aF-0.0267
aF-0.028
aF-0.0285
aF-0.0259
aF-0.0264
aF-0.0277
aF-0.0262
aF-0.0273
aF-0.0268
aF-0.027
aF-0.0273
aF-0.0266
aF-0.0264
aF-0.0268
aF-0.0274
aF-0.0274
aF-0.0271
aF-0.0279
aF-0.028
aF-0.0269
aF-0.0274
aF-0.0263
aF-0.0265
aF-0.0261
aF-0.0267
aF-0.0269
aF-0.0269
aF-0.0258
aF-0.0265
aF-0.0273
aF-0.028
aF-0.028
aF-0.0273
aF-0.0273
aF-0.0269
aF-0.0274
aF-0.0267
aF-0.0275
aF-0.0276
aF-0.0272
aF-0.0266
aF-0.0287
aF-0.0279
aF-0.0285
aF-0.0268
aF-0.0267
aF-0.0264
aF-0.0266
aF-0.0276
aF-0.0274
aF-0.0286
aF-0.028
aF-0.0274
aF-0.0267
aF-0.0281
aF-0.0277
aF-0.0272
aF-0.0274
aF-0.0258
aF-0.027
aF-0.0269
aF-0.0295
aF-0.0278
aF-0.0273
aF-0.0262
aF-0.0278
aF-0.0267
aF-0.0274
aF-0.0273
aF-0.027
aF-0.027
aF-0.0264
aF-0.0278
aF-0.0279
aF-0.0271
aF-0.0267
aF-0.0257
aF-0.0271
aF-0.0276
aF-0.0275
aF-0.0274
aF-0.0274
aF-0.0273
aF-0.0268
aF-0.0274
aF-0.0274
aF-0.0272
aF-0.0266
aF-0.0265
aF-0.0255
aF-0.0291
aF-0.027
aF-0.0262
aF-0.0271
aF-0.0264
aF-0.027
aF-0.0265
aF-0.0269
aF-0.027
aF-0.0261
aF-0.0266
aF-0.0283
aF-0.0268
aF-0.0283
aF-0.0278
aF-0.0259
aF-0.0281
aF-0.0263
aF-0.0282
aF-0.0279
aF-0.0267
aF-0.0262
aF-0.0265
aF-0.027
aF-0.0272
aF-0.028
aF-0.0271
aF-0.0274
aF-0.0268
aF-0.0256
aF-0.0263
aF-0.0265
aF-0.0267
aF-0.0265
aF-0.0275
aF-0.0286
aF-0.0261
aF-0.0277
aF-0.0281
aF-0.0269
aF-0.0264
aF-0.0268
aF-0.0269
aF-0.0274
aF-0.0276
aF-0.0254
aF-0.0272
aF-0.0281
aF-0.0262
aF-0.027
aF-0.0267
aF-0.0278
aF-0.027
aF-0.027
aF-0.0271
aF-0.0278
aF-0.0276
aF-0.0266
aF-0.0274
aF-0.0284
aF-0.0274
aF-0.0277
aF-0.0274
aF-0.0263
aF-0.0272
aF-0.026
aF-0.0273
aF-0.0272
aF-0.0278
aF-0.0264
aF-0.0271
aF-0.0269
aF-0.0275
aF-0.0268
aF-0.0276
aF-0.0264
aF-0.0271
aF-0.0277
aF-0.0266
aF-0.0277
aF-0.0265
aF-0.028
aF-0.0274
aF-0.0279
aF-0.0266
aF-0.0286
aF-0.0271
aF-0.0267
aF-0.0267
aF-0.0269
aF-0.0274
aF-0.0281
aF-0.0279
aF-0.0268
aF-0.0268
aF-0.0269
aF-0.0273
aF-0.0276
aF-0.0276
aF-0.0278
aF-0.0258
aF-0.0266
aF-0.0277
aF-0.0273
aF-0.0272
aF-0.0262
aF-0.0262
aF-0.0277
aF-0.0275
aF-0.0278
aF-0.0268
aF-0.0264
aF-0.0256
aF-0.0268
aF-0.0263
aF-0.0271
aF-0.0274
aF-0.0261
aF-0.0265
aF-0.0271
aF-0.0285
aF-0.0273
aF-0.0274
aF-0.0271
aF-0.027
aF-0.027
aF-0.026
aF-0.0268
aF-0.027
aF-0.0273
aF-0.0277
aF-0.0281
aF-0.0268
aF-0.0272
aF-0.0279
aF-0.0268
aF-0.026
aF-0.0258
aF-0.0268
aF-0.027
aF-0.0272
aF-0.0264
aF-0.0256
aF-0.028
aF-0.0273
aF-0.0273
aF-0.0279
aF-0.0269
aF-0.0272
aF-0.0263
aF-0.0273
aF-0.0285
aF-0.026
aF-0.0263
aF-0.0272
aF-0.0276
aF-0.0275
aF-0.0272
aF-0.0263
aF-0.0264
aF-0.0271
aF-0.026
aF-0.0272
aF-0.0267
aF-0.0269
aF-0.027
aF-0.0276
aF-0.0275
aF-0.0273
aF-0.0278
aF-0.0276
aF-0.0273
aF-0.0268
aF-0.0263
aF-0.0278
aF-0.0275
aF-0.0278
aF-0.0263
aF-0.0267
aF-0.0277
aF-0.0269
aF-0.0285
aF-0.0279
aF-0.0266
aF-0.0256
aF-0.0263
aF-0.0275
aF-0.0277
aF-0.0275
aF-0.0271
aF-0.0283
aF-0.0271
aF-0.0271
aF-0.0278
aF-0.0258
aF-0.0271
aF-0.0268
aF-0.0269
aF-0.0272
aF-0.0258
aF-0.0266
aF-0.0275
aF-0.0252
aF-0.0276
aF-0.0278
aF-0.0274
aF-0.0276
aF-0.0272
aF-0.0261
aF-0.0266
aF-0.0274
aF-0.0274
aF-0.0262
aF-0.0278
aF-0.028
aF-0.0281
aF-0.0279
aF-0.0265
aF-0.0258
aF-0.0275
aF-0.0262
aF-0.0275
aF-0.0267
aF-0.0271
aF-0.0281
aF-0.0272
aF-0.0267
aF-0.0276
aF-0.0281
aF-0.0274
aF-0.0272
aF-0.0272
aF-0.0256
aF-0.0273
aF-0.0267
aF-0.0276
aF-0.0262
aF-0.027
aF-0.027
aF-0.0274
aF-0.0272
aF-0.0269
aF-0.0273
aF-0.027
aF-0.0276
aF-0.0274
aF-0.026
aF-0.0274
aF-0.027
aF-0.0267
aF-0.0262
aF-0.0262
aF-0.0268
asS'htune'
p39
(lp40
F25.399999547999997
aF25.32500069
asS'i'
p41
I2
sS'time'
p42
(lp43
F0.0012
aF0.0026
aF0.004
aF0.0054
aF0.0068
aF0.0082
aF0.0096
aF0.011
aF0.0124
aF0.0137
aF0.0151
aF0.0165
aF0.0179
aF0.0193
aF0.0207
aF0.0221
aF0.0235
aF0.0248
aF0.0262
aF0.0276
aF0.029
aF0.0304
aF0.0318
aF0.0332
aF0.0346
aF0.036
aF0.0374
aF0.0387
aF0.0401
aF0.0415
aF0.0429
aF0.0443
aF0.0457
aF0.0471
aF0.0485
aF0.0499
aF0.0512
aF0.0526
aF0.054
aF0.0554
aF0.0568
aF0.0582
aF0.0596
aF0.061
aF0.0624
aF0.0637
aF0.0651
aF0.0665
aF0.0679
aF0.0693
aF0.0707
aF0.0721
aF0.0735
aF0.0749
aF0.0762
aF0.0776
aF0.079
aF0.0804
aF0.0818
aF0.0832
aF0.0846
aF0.086
aF0.0874
aF0.0887
aF0.0901
aF0.0915
aF0.0929
aF0.0943
aF0.0957
aF0.0971
aF0.0985
aF0.0999
aF0.1013
aF0.1026
aF0.104
aF0.1054
aF0.1068
aF0.1082
aF0.1096
aF0.111
aF0.1124
aF0.1138
aF0.1151
aF0.1165
aF0.1179
aF0.1193
aF0.1207
aF0.1221
aF0.1235
aF0.1249
aF0.12630001
aF0.1276
aF0.12899999
aF0.1304
aF0.1318
aF0.1332
aF0.1346
aF0.13600001
aF0.1374
aF0.1388
aF0.1401
aF0.1415
aF0.1429
aF0.1443
aF0.14569999
aF0.1471
aF0.1485
aF0.1499
aF0.1513
aF0.15270001
aF0.154
aF0.15539999
aF0.1568
aF0.1582
aF0.1596
aF0.161
aF0.16240001
aF0.1638
aF0.1652
aF0.1665
aF0.1679
aF0.1693
aF0.1707
aF0.17209999
aF0.1735
aF0.1749
aF0.1763
aF0.1777
aF0.17900001
aF0.1804
aF0.18179999
aF0.1832
aF0.1846
aF0.186
aF0.1874
aF0.18880001
aF0.1902
aF0.19149999
aF0.1929
aF0.1943
aF0.1957
aF0.1971
aF0.19850001
aF0.1999
aF0.2013
aF0.2027
aF0.204
aF0.2054
aF0.2068
aF0.20819999
aF0.2096
aF0.211
aF0.2124
aF0.2138
aF0.21520001
aF0.2166
aF0.21789999
aF0.2193
aF0.2207
aF0.2221
aF0.2235
aF0.22490001
aF0.2263
aF0.2277
aF0.2291
aF0.2304
aF0.2318
aF0.2332
aF0.23459999
aF0.236
aF0.2374
aF0.2388
aF0.2402
aF0.24160001
aF0.2429
aF0.24429999
aF0.2457
aF0.2471
aF0.2485
aF0.2499
aF0.25130001
aF0.2527
aF0.25409999
aF0.2554
aF0.2568
aF0.25819999
aF0.25960001
aF0.26100001
aF0.2624
aF0.2638
aF0.26519999
aF0.26660001
aF0.26789999
aF0.26930001
aF0.27070001
aF0.2721
aF0.2735
aF0.27489999
aF0.27630001
aF0.27770001
aF0.2791
aF0.28049999
aF0.2818
aF0.2832
aF0.28459999
aF0.28600001
aF0.28740001
aF0.2888
aF0.2902
aF0.29159999
aF0.29300001
aF0.29429999
aF0.29570001
aF0.29710001
aF0.2985
aF0.2999
aF0.30129999
aF0.30270001
aF0.30410001
aF0.3055
aF0.30680001
aF0.3082
aF0.3096
aF0.31099999
aF0.31240001
aF0.31380001
aF0.3152
aF0.31659999
aF0.31799999
aF0.3193
aF0.32069999
aF0.32210001
aF0.32350001
aF0.3249
aF0.3263
aF0.32769999
aF0.32910001
aF0.33050001
aF0.33180001
aF0.33320001
aF0.3346
aF0.336
aF0.33739999
aF0.33880001
aF0.34020001
aF0.3416
aF0.34299999
aF0.34439999
aF0.3457
aF0.34709999
aF0.34850001
aF0.34990001
aF0.3513
aF0.3527
aF0.35409999
aF0.35550001
aF0.35690001
aF0.35820001
aF0.35960001
aF0.361
aF0.3624
aF0.36379999
aF0.36520001
aF0.36660001
aF0.368
aF0.36939999
aF0.3707
aF0.3721
aF0.37349999
aF0.37490001
aF0.37630001
aF0.3777
aF0.37909999
aF0.38049999
aF0.38190001
aF0.38319999
aF0.38460001
aF0.38600001
aF0.3874
aF0.3888
aF0.39019999
aF0.39160001
aF0.39300001
aF0.3944
aF0.39570001
aF0.3971
aF0.3985
aF0.39989999
aF0.40130001
aF0.40270001
aF0.4041
aF0.40549999
aF0.40689999
aF0.40830001
aF0.40959999
aF0.41100001
aF0.41240001
aF0.4138
aF0.4152
aF0.41659999
aF0.41800001
aF0.41940001
aF0.4208
aF0.42210001
aF0.4235
aF0.4249
aF0.42629999
aF0.42770001
aF0.42910001
aF0.4305
aF0.43189999
aF0.43329999
aF0.4346
aF0.43599999
aF0.43740001
aF0.43880001
aF0.4402
aF0.44159999
aF0.44299999
aF0.44440001
aF0.44580001
aF0.44710001
aF0.44850001
aF0.4499
aF0.4513
aF0.45269999
aF0.45410001
aF0.45550001
aF0.4569
aF0.45829999
aF0.45969999
aF0.461
aF0.46239999
aF0.46380001
aF0.46520001
aF0.4666
aF0.46799999
aF0.46939999
aF0.47080001
aF0.47220001
aF0.47350001
aF0.47490001
aF0.4763
aF0.4777
aF0.47909999
aF0.48050001
aF0.48190001
aF0.4833
aF0.48469999
aF0.486
aF0.4874
aF0.48879999
aF0.49020001
aF0.49160001
aF0.493
aF0.49439999
aF0.49579999
aF0.49720001
aF0.49849999
aF0.49990001
aF0.50129998
aF0.50269997
aF0.50410002
aF0.50550002
aF0.50690001
aF0.50830001
aF0.5097
aF0.51099998
aF0.51239997
aF0.51380002
aF0.51520002
aF0.51660001
aF0.51800001
aF0.5194
aF0.52079999
aF0.52219999
aF0.52359998
aF0.52490002
aF0.52630001
aF0.52770001
aF0.5291
aF0.53049999
aF0.53189999
aF0.53329998
aF0.53469998
aF0.53609997
aF0.53740001
aF0.5388
aF0.5402
aF0.54159999
aF0.54299998
aF0.54439998
aF0.54579997
aF0.54720002
aF0.54860002
aF0.5499
aF0.55129999
aF0.55269998
aF0.55409998
aF0.55549997
aF0.55690002
aF0.55830002
aF0.55970001
aF0.56110001
aF0.56239998
aF0.56379998
aF0.56519997
aF0.56660002
aF0.56800002
aF0.56940001
aF0.57080001
aF0.5722
aF0.57359999
aF0.57489997
aF0.57630002
aF0.57770002
aF0.57910001
aF0.58050001
aF0.5819
aF0.58329999
aF0.58469999
aF0.58609998
aF0.58749998
aF0.58880001
aF0.59020001
aF0.5916
aF0.59299999
aF0.59439999
aF0.59579998
aF0.59719998
aF0.59859997
aF0.60000002
aF0.6013
aF0.6027
aF0.60409999
aF0.60549998
aF0.60689998
aF0.60829997
aF0.60970002
aF0.61110002
aF0.61250001
aF0.61379999
aF0.61519998
aF0.61659998
aF0.61799997
aF0.61940002
aF0.62080002
aF0.62220001
aF0.62360001
aF0.625
aF0.62629998
aF0.62769997
aF0.62910002
aF0.63050002
aF0.63190001
aF0.63330001
aF0.6347
aF0.63609999
aF0.63749999
aF0.63880002
aF0.64020002
aF0.64160001
aF0.64300001
aF0.6444
aF0.64579999
aF0.64719999
aF0.64859998
aF0.64999998
aF0.65140003
aF0.65270001
aF0.6541
aF0.65549999
aF0.65689999
aF0.65829998
aF0.65969998
aF0.66109997
aF0.66250002
aF0.66390002
aF0.6652
aF0.66659999
aF0.66799998
aF0.66939998
aF0.67079997
aF0.67220002
aF0.67360002
aF0.67500001
aF0.67640001
aF0.67769998
aF0.67909998
aF0.68049997
aF0.68190002
aF0.68330002
aF0.68470001
aF0.68610001
aF0.6875
aF0.68889999
aF0.69019997
aF0.69160002
aF0.69300002
aF0.69440001
aF0.69580001
aF0.6972
aF0.69859999
aF0.69999999
aF0.70139998
aF0.70279998
aF0.70410001
aF0.70550001
aF0.7069
aF0.70829999
aF0.70969999
aF0.71109998
aF0.71249998
aF0.71390003
aF0.71530002
aF0.7166
aF0.71799999
aF0.71939999
aF0.72079998
aF0.72219998
aF0.72359997
aF0.72500002
aF0.72640002
aF0.72780001
aF0.72909999
aF0.73049998
aF0.73189998
aF0.73329997
aF0.73470002
aF0.73610002
aF0.73750001
aF0.73890001
aF0.7403
aF0.74159998
aF0.74299997
aF0.74440002
aF0.74580002
aF0.74720001
aF0.74860001
aF0.75
aF0.75139999
aF0.75279999
aF0.75410002
aF0.75550002
aF0.75690001
aF0.75830001
aF0.7597
aF0.76109999
aF0.76249999
aF0.76389998
aF0.76529998
aF0.76670003
aF0.76800001
aF0.7694
aF0.77079999
aF0.77219999
aF0.77359998
aF0.77499998
aF0.77640003
aF0.77780002
aF0.77920002
aF0.78049999
aF0.78189999
aF0.78329998
aF0.78469998
aF0.78609997
aF0.78750002
aF0.78890002
aF0.79030001
aF0.79170001
aF0.79299998
aF0.79439998
aF0.79579997
aF0.79720002
aF0.79860002
aF0.80000001
aF0.80140001
aF0.8028
aF0.80419999
aF0.80549997
aF0.80690002
aF0.80830002
aF0.80970001
aF0.81110001
aF0.8125
aF0.81389999
aF0.81529999
aF0.81669998
aF0.81800002
aF0.81940001
aF0.82080001
aF0.8222
aF0.82359999
aF0.82499999
aF0.82639998
aF0.82779998
aF0.82920003
aF0.83060002
aF0.8319
aF0.83329999
aF0.83469999
aF0.83609998
aF0.83749998
aF0.83890003
aF0.84030002
aF0.84170002
aF0.84310001
aF0.84439999
aF0.84579998
aF0.84719998
aF0.84859997
aF0.85000002
aF0.85140002
aF0.85280001
aF0.85420001
aF0.8556
aF0.85689998
aF0.85829997
aF0.85970002
aF0.86110002
aF0.86250001
aF0.86390001
aF0.8653
aF0.86669999
aF0.86809999
aF0.86940002
aF0.87080002
aF0.87220001
aF0.87360001
aF0.875
aF0.87639999
aF0.87779999
aF0.87919998
aF0.88059998
aF0.88190001
aF0.88330001
aF0.8847
aF0.88609999
aF0.88749999
aF0.88889998
aF0.89029998
aF0.89170003
aF0.89310002
aF0.89450002
aF0.89579999
aF0.89719999
aF0.89859998
aF0.89999998
aF0.90140003
aF0.90280002
aF0.90420002
aF0.90560001
aF0.90700001
aF0.90829998
aF0.90969998
aF0.91109997
aF0.91250002
aF0.91390002
aF0.91530001
aF0.91670001
aF0.9181
aF0.91949999
aF0.92079997
aF0.92220002
aF0.92360002
aF0.92500001
aF0.92640001
aF0.9278
aF0.92919999
aF0.93059999
aF0.93199998
aF0.93330002
aF0.93470001
aF0.93610001
aF0.9375
aF0.93889999
aF0.94029999
aF0.94169998
aF0.94309998
aF0.94450003
aF0.94580001
aF0.9472
aF0.94859999
aF0.94999999
aF0.95139998
aF0.95279998
aF0.95420003
aF0.95560002
aF0.95700002
aF0.95840001
aF0.95969999
aF0.96109998
aF0.96249998
aF0.96390003
aF0.96530002
aF0.96670002
aF0.96810001
aF0.96950001
aF0.9709
aF0.97219998
aF0.97359997
aF0.97500002
aF0.97640002
aF0.97780001
aF0.97920001
aF0.9806
aF0.98199999
aF0.98339999
aF0.98470002
aF0.98610002
aF0.98750001
aF0.98890001
aF0.9903
aF0.99169999
aF0.99309999
aF0.99449998
aF0.99589998
aF0.99720001
aF0.99860001
aF1.0
aF1.0014
aF1.0028
aF1.0042
aF1.0056
aF1.007
aF1.0084
aF1.0096999
aF1.0111001
aF1.0125
aF1.0139
aF1.0153
aF1.0167
aF1.0181
aF1.0195
aF1.0209
aF1.0223
aF1.0236
aF1.025
aF1.0264
aF1.0278
aF1.0292
aF1.0306
aF1.0319999
aF1.0334001
aF1.0348001
aF1.0361
aF1.0375
aF1.0389
aF1.0403
aF1.0417
aF1.0431
aF1.0445
aF1.0459
aF1.0473
aF1.0486
aF1.05
aF1.0513999
aF1.0528001
aF1.0542001
aF1.0556
aF1.057
aF1.0584
aF1.0598
aF1.0611
aF1.0625
aF1.0639
aF1.0653
aF1.0667
aF1.0681
aF1.0695
aF1.0709
aF1.0723
aF1.0737
aF1.075
aF1.0764
aF1.0778
aF1.0792
aF1.0806
aF1.082
aF1.0834
aF1.0848
aF1.0862
aF1.0875
aF1.0889
aF1.0903
aF1.0917
aF1.0931
aF1.0944999
aF1.0959001
aF1.0973001
aF1.0987
aF1.1
aF1.1014
aF1.1028
aF1.1042
aF1.1056
aF1.107
aF1.1084
aF1.1098
aF1.1112
aF1.1125
aF1.1138999
aF1.1153001
aF1.1167001
aF1.1181
aF1.1195
aF1.1209
aF1.1223
aF1.1237
aF1.125
aF1.1264
aF1.1278
aF1.1292
aF1.1306
aF1.132
aF1.1334
aF1.1348
aF1.1362
aF1.1375999
aF1.1389
aF1.1403
aF1.1417
aF1.1431
aF1.1445
aF1.1459
aF1.1473
aF1.1487
aF1.1501
aF1.1514
aF1.1528
aF1.1542
aF1.1556
aF1.1569999
aF1.1584001
aF1.1598001
aF1.1612
aF1.1626
aF1.1639
aF1.1653
aF1.1667
aF1.1682
aF1.1695
aF1.1709
aF1.1723
aF1.1737
aF1.1751
aF1.1763999
aF1.1778001
aF1.1792001
aF1.1806
aF1.182
aF1.1834
aF1.1848
aF1.1862
aF1.1876
aF1.1889
aF1.1903
aF1.1917
aF1.1931
aF1.1945
aF1.1959
aF1.1973
aF1.1987
aF1.2000999
aF1.2015001
aF1.2028
aF1.2042
aF1.2056
aF1.207
aF1.2084
aF1.2098
aF1.2112
aF1.2126
aF1.214
aF1.2153
aF1.2167
aF1.2181
aF1.2194999
aF1.2209001
aF1.2223001
aF1.2237
aF1.2251
aF1.2265
aF1.2278
aF1.2292
aF1.2306
aF1.232
aF1.2334
aF1.2348
aF1.2362
aF1.2376
aF1.239
aF1.2404
aF1.2417001
aF1.2431
aF1.2445
aF1.2459
aF1.2473
aF1.2487
aF1.2501
aF1.2515
aF1.2529
aF1.2542
aF1.2556
aF1.257
aF1.2584
aF1.2598
aF1.2612
aF1.2625999
aF1.2640001
aF1.2654001
aF1.2667
aF1.2681
aF1.2695
aF1.2709
aF1.2723
aF1.2737
aF1.2751
aF1.2765
aF1.2779
aF1.2792
aF1.2806
aF1.2819999
aF1.2834001
aF1.2848001
aF1.2862
aF1.2876
aF1.289
aF1.2904
aF1.2917
aF1.2931
aF1.2945
aF1.2959
aF1.2973
aF1.2987
ass.