(dp0
I0
(dp1
S'i'
p2
I0
sS'vtune'
p3
(lp4
F24.450000784
aF24.450000784
asS'time'
p5
(lp6
F0.0008
aF0.0022
aF0.0036
aF0.005
aF0.0063
aF0.0077
aF0.0091
aF0.0105
aF0.0119
aF0.0133
aF0.0147
aF0.0161
aF0.0175
aF0.0188
aF0.0202
aF0.0216
aF0.023
aF0.0244
aF0.0258
aF0.0272
aF0.0286
aF0.03
aF0.0313
aF0.0327
aF0.0341
aF0.0355
aF0.0369
aF0.0383
aF0.0397
aF0.0411
aF0.0425
aF0.0438
aF0.0452
aF0.0466
aF0.048
aF0.0494
aF0.0508
aF0.0522
aF0.0536
aF0.055
aF0.0563
aF0.0577
aF0.0591
aF0.0605
aF0.0619
aF0.0633
aF0.0647
aF0.0661
aF0.0675
aF0.0689
aF0.0702
aF0.0716
aF0.073
aF0.0744
aF0.0758
aF0.0772
aF0.0786
aF0.08
aF0.0814
aF0.0827
aF0.0841
aF0.0855
aF0.0869
aF0.0883
aF0.0897
aF0.0911
aF0.0925
aF0.0939
aF0.0952
aF0.0966
aF0.098
aF0.0994
aF0.1008
aF0.1022
aF0.1036
aF0.105
aF0.1064
aF0.1077
aF0.1091
aF0.1105
aF0.1119
aF0.1133
aF0.1147
aF0.1161
aF0.1175
aF0.1189
aF0.1203
aF0.1216
aF0.123
aF0.1244
aF0.1258
aF0.12720001
aF0.1286
aF0.13
aF0.1314
aF0.1328
aF0.13410001
aF0.1355
aF0.13689999
aF0.1383
aF0.1397
aF0.1411
aF0.1425
aF0.14390001
aF0.1453
aF0.14659999
aF0.148
aF0.1494
aF0.1508
aF0.1522
aF0.15360001
aF0.155
aF0.1564
aF0.1578
aF0.1591
aF0.1605
aF0.1619
aF0.16329999
aF0.1647
aF0.1661
aF0.1675
aF0.1689
aF0.17030001
aF0.1716
aF0.17299999
aF0.1744
aF0.1758
aF0.1772
aF0.1786
aF0.18000001
aF0.1814
aF0.18279999
aF0.1842
aF0.1855
aF0.1869
aF0.1883
aF0.18970001
aF0.1911
aF0.1925
aF0.1939
aF0.1953
aF0.19670001
aF0.198
aF0.19939999
aF0.2008
aF0.2022
aF0.2036
aF0.205
aF0.20640001
aF0.2078
aF0.20919999
aF0.2105
aF0.2119
aF0.2133
aF0.2147
aF0.21610001
aF0.2175
aF0.2189
aF0.2203
aF0.2217
aF0.223
aF0.2244
aF0.22579999
aF0.2272
aF0.2286
aF0.23
aF0.2314
aF0.23280001
aF0.2342
aF0.23549999
aF0.2369
aF0.2383
aF0.2397
aF0.2411
aF0.24250001
aF0.2439
aF0.24529999
aF0.2467
aF0.2481
aF0.2494
aF0.25080001
aF0.25220001
aF0.2536
aF0.255
aF0.25639999
aF0.25780001
aF0.25920001
aF0.2606
aF0.26190001
aF0.2633
aF0.2647
aF0.26609999
aF0.26750001
aF0.26890001
aF0.2703
aF0.27169999
aF0.27309999
aF0.2744
aF0.27579999
aF0.27720001
aF0.27860001
aF0.28
aF0.2814
aF0.28279999
aF0.28420001
aF0.28560001
aF0.28690001
aF0.28830001
aF0.2897
aF0.2911
aF0.29249999
aF0.29390001
aF0.29530001
aF0.2967
aF0.29809999
aF0.2994
aF0.3008
aF0.30219999
aF0.30360001
aF0.30500001
aF0.3064
aF0.30779999
aF0.30919999
aF0.31060001
aF0.31200001
aF0.31330001
aF0.31470001
aF0.3161
aF0.3175
aF0.31889999
aF0.32030001
aF0.32170001
aF0.3231
aF0.32449999
aF0.3258
aF0.3272
aF0.32859999
aF0.33000001
aF0.33140001
aF0.3328
aF0.33419999
aF0.33559999
aF0.33700001
aF0.33829999
aF0.33970001
aF0.34110001
aF0.3425
aF0.3439
aF0.34529999
aF0.34670001
aF0.34810001
aF0.3495
aF0.35080001
aF0.3522
aF0.3536
aF0.35499999
aF0.35640001
aF0.35780001
aF0.3592
aF0.36059999
aF0.36199999
aF0.3633
aF0.36469999
aF0.36610001
aF0.36750001
aF0.3689
aF0.37029999
aF0.37169999
aF0.37310001
aF0.37450001
aF0.3759
aF0.37720001
aF0.3786
aF0.38
aF0.38139999
aF0.38280001
aF0.38420001
aF0.3856
aF0.38699999
aF0.38839999
aF0.3897
aF0.39109999
aF0.39250001
aF0.39390001
aF0.3953
aF0.39669999
aF0.39809999
aF0.39950001
aF0.40090001
aF0.40220001
aF0.40360001
aF0.405
aF0.4064
aF0.40779999
aF0.40920001
aF0.41060001
aF0.412
aF0.41339999
aF0.4147
aF0.4161
aF0.41749999
aF0.41890001
aF0.42030001
aF0.4217
aF0.42309999
aF0.42449999
aF0.42590001
aF0.42730001
aF0.42860001
aF0.43000001
aF0.4314
aF0.43279999
aF0.43419999
aF0.43560001
aF0.43700001
aF0.4384
aF0.43979999
aF0.4411
aF0.4425
aF0.44389999
aF0.44530001
aF0.44670001
aF0.4481
aF0.44949999
aF0.45089999
aF0.45230001
aF0.45359999
aF0.45500001
aF0.45640001
aF0.4578
aF0.45919999
aF0.46059999
aF0.46200001
aF0.46340001
aF0.4648
aF0.46610001
aF0.4675
aF0.4689
aF0.47029999
aF0.47170001
aF0.47310001
aF0.4745
aF0.47589999
aF0.47729999
aF0.4786
aF0.47999999
aF0.48140001
aF0.48280001
aF0.4842
aF0.48559999
aF0.48699999
aF0.48840001
aF0.48980001
aF0.4912
aF0.49250001
aF0.4939
aF0.49529999
aF0.49669999
aF0.49810001
aF0.49950001
aF0.50089997
aF0.50230002
aF0.50370002
aF0.505
aF0.50639999
aF0.50779998
aF0.50919998
aF0.51059997
aF0.51200002
aF0.51340002
aF0.51480001
aF0.51620001
aF0.51749998
aF0.51889998
aF0.52029997
aF0.52170002
aF0.52310002
aF0.52450001
aF0.52590001
aF0.5273
aF0.52869999
aF0.52999997
aF0.53140002
aF0.53280002
aF0.53420001
aF0.53560001
aF0.537
aF0.53839999
aF0.53979999
aF0.54119998
aF0.54250002
aF0.54390001
aF0.54530001
aF0.5467
aF0.54809999
aF0.54949999
aF0.55089998
aF0.55229998
aF0.55369997
aF0.55510002
aF0.5564
aF0.55779999
aF0.55919999
aF0.56059998
aF0.56199998
aF0.56339997
aF0.56480002
aF0.56620002
aF0.56760001
aF0.56889999
aF0.57029998
aF0.57169998
aF0.57309997
aF0.57450002
aF0.57590002
aF0.57730001
aF0.57870001
aF0.5801
aF0.58139998
aF0.58279997
aF0.58420002
aF0.58560002
aF0.58700001
aF0.58840001
aF0.5898
aF0.59119999
aF0.59259999
aF0.59390002
aF0.59530002
aF0.59670001
aF0.59810001
aF0.5995
aF0.60089999
aF0.60229999
aF0.60369998
aF0.60509998
aF0.60640001
aF0.60780001
aF0.6092
aF0.61059999
aF0.61199999
aF0.61339998
aF0.61479998
aF0.61619997
aF0.61760002
aF0.61900002
aF0.62029999
aF0.62169999
aF0.62309998
aF0.62449998
aF0.62589997
aF0.62730002
aF0.62870002
aF0.63010001
aF0.63150001
aF0.63279998
aF0.63419998
aF0.63559997
aF0.63700002
aF0.63840002
aF0.63980001
aF0.64120001
aF0.6426
aF0.64399999
aF0.64529997
aF0.64670002
aF0.64810002
aF0.64950001
aF0.65090001
aF0.6523
aF0.65369999
aF0.65509999
aF0.65649998
aF0.65780002
aF0.65920001
aF0.66060001
aF0.662
aF0.66339999
aF0.66479999
aF0.66619998
aF0.66759998
aF0.66900003
aF0.67030001
aF0.6717
aF0.67309999
aF0.67449999
aF0.67589998
aF0.67729998
aF0.67869997
aF0.68010002
aF0.68150002
aF0.68290001
aF0.68419999
aF0.68559998
aF0.68699998
aF0.68839997
aF0.68980002
aF0.69120002
aF0.69260001
aF0.69400001
aF0.6954
aF0.69669998
aF0.69809997
aF0.69950002
aF0.70090002
aF0.70230001
aF0.70370001
aF0.7051
aF0.70649999
aF0.70789999
aF0.70920002
aF0.71060002
aF0.71200001
aF0.71340001
aF0.7148
aF0.71619999
aF0.71759999
aF0.71899998
aF0.72039998
aF0.72170001
aF0.72310001
aF0.7245
aF0.72589999
aF0.72729999
aF0.72869998
aF0.73009998
aF0.73150003
aF0.73290002
aF0.73430002
aF0.73559999
aF0.73699999
aF0.73839998
aF0.73979998
aF0.74119997
aF0.74260002
aF0.74400002
aF0.74540001
aF0.74680001
aF0.74809998
aF0.74949998
aF0.75089997
aF0.75230002
aF0.75370002
aF0.75510001
aF0.75650001
aF0.7579
aF0.75929999
aF0.76059997
aF0.76200002
aF0.76340002
aF0.76480001
aF0.76620001
aF0.7676
aF0.76899999
aF0.77039999
aF0.77179998
aF0.77310002
aF0.77450001
aF0.77590001
aF0.7773
aF0.77869999
aF0.78009999
aF0.78149998
aF0.78289998
aF0.78430003
aF0.78560001
aF0.787
aF0.78839999
aF0.78979999
aF0.79119998
aF0.79259998
aF0.79400003
aF0.79540002
aF0.79680002
aF0.79820001
aF0.79949999
aF0.80089998
aF0.80229998
aF0.80369997
aF0.80510002
aF0.80650002
aF0.80790001
aF0.80930001
aF0.8107
aF0.81199998
aF0.81339997
aF0.81480002
aF0.81620002
aF0.81760001
aF0.81900001
aF0.8204
aF0.82179999
aF0.82319999
aF0.82450002
aF0.82590002
aF0.82730001
aF0.82870001
aF0.8301
aF0.83149999
aF0.83289999
aF0.83429998
aF0.83569998
aF0.83700001
aF0.83840001
aF0.8398
aF0.84119999
aF0.84259999
aF0.84399998
aF0.84539998
aF0.84680003
aF0.84820002
aF0.8495
aF0.85089999
aF0.85229999
aF0.85369998
aF0.85509998
aF0.85650003
aF0.85790002
aF0.85930002
aF0.86070001
aF0.86210001
aF0.86339998
aF0.86479998
aF0.86619997
aF0.86760002
aF0.86900002
aF0.87040001
aF0.87180001
aF0.8732
aF0.87459999
aF0.87589997
aF0.87730002
aF0.87870002
aF0.88010001
aF0.88150001
aF0.8829
aF0.88429999
aF0.88569999
aF0.88709998
aF0.88840002
aF0.88980001
aF0.89120001
aF0.8926
aF0.89399999
aF0.89539999
aF0.89679998
aF0.89819998
aF0.89960003
aF0.90090001
aF0.9023
aF0.90369999
aF0.90509999
aF0.90649998
aF0.90789998
aF0.90930003
aF0.91070002
aF0.91210002
aF0.91339999
aF0.91479999
aF0.91619998
aF0.91759998
aF0.91900003
aF0.92040002
aF0.92180002
aF0.92320001
aF0.92460001
aF0.926
aF0.92729998
aF0.92869997
aF0.93010002
aF0.93150002
aF0.93290001
aF0.93430001
aF0.9357
aF0.93709999
aF0.93849999
aF0.93980002
aF0.94120002
aF0.94260001
aF0.94400001
aF0.9454
aF0.94679999
aF0.94819999
aF0.94959998
aF0.95099998
aF0.95230001
aF0.95370001
aF0.9551
aF0.95649999
aF0.95789999
aF0.95929998
aF0.96069998
aF0.96210003
aF0.96350002
aF0.96490002
aF0.96619999
aF0.96759999
aF0.96899998
aF0.97039998
aF0.97180003
aF0.97320002
aF0.97460002
aF0.97600001
aF0.97729999
aF0.97869998
aF0.98009998
aF0.98150003
aF0.98290002
aF0.98430002
aF0.98570001
aF0.98710001
aF0.9885
aF0.98989999
aF0.99119997
aF0.99260002
aF0.99400002
aF0.99540001
aF0.99680001
aF0.9982
aF0.99959999
aF1.001
aF1.0024
aF1.0037
aF1.0051
aF1.0065
aF1.0079
aF1.0093
aF1.0107
aF1.0121
aF1.0135
aF1.0149
aF1.0161999
aF1.0176001
aF1.0190001
aF1.0204
aF1.0218
aF1.0232
aF1.0246
aF1.026
aF1.0274
aF1.0287
aF1.0301
aF1.0315
aF1.0329
aF1.0343
aF1.0357
aF1.0371
aF1.0385
aF1.0398999
aF1.0413001
aF1.0426
aF1.044
aF1.0454
aF1.0468
aF1.0482
aF1.0496
aF1.051
aF1.0524
aF1.0538
aF1.0551
aF1.0565
aF1.0579
aF1.0592999
aF1.0607001
aF1.0621001
aF1.0635
aF1.0649
aF1.0663
aF1.0676
aF1.069
aF1.0704
aF1.0718
aF1.0732
aF1.0746
aF1.076
aF1.0774
aF1.0788
aF1.0801001
aF1.0815001
aF1.0829
aF1.0843
aF1.0857
aF1.0871
aF1.0885
aF1.0899
aF1.0913
aF1.0926
aF1.094
aF1.0954
aF1.0968
aF1.0982
aF1.0996
aF1.101
aF1.1023999
aF1.1038001
aF1.1052001
aF1.1065
aF1.1079
aF1.1093
aF1.1107
aF1.1121
aF1.1135
aF1.1149
aF1.1163
aF1.1177
aF1.1191
aF1.1204
aF1.1217999
aF1.1232001
aF1.1246001
aF1.126
aF1.1274
aF1.1288
aF1.1302
aF1.1315
aF1.1329
aF1.1343
aF1.1357
aF1.1371
aF1.1385
aF1.1399
aF1.1413
aF1.1427
aF1.1440001
aF1.1454
aF1.1468
aF1.1482
aF1.1496
aF1.151
aF1.1524
aF1.1538
aF1.1552
aF1.1565
aF1.1579
aF1.1593
aF1.1607
aF1.1621
aF1.1635
aF1.1648999
aF1.1663001
aF1.1677001
aF1.1691
aF1.1704
aF1.1718
aF1.1732
aF1.1746
aF1.176
aF1.1774
aF1.1788
aF1.1802
aF1.1816
aF1.1829
aF1.1842999
aF1.1857001
aF1.1871001
aF1.1885
aF1.1899
aF1.1913
aF1.1927
aF1.1941
aF1.1954
aF1.1968
aF1.1982
aF1.1996
aF1.201
aF1.2024
aF1.2038
aF1.2052
aF1.2066
aF1.2079
aF1.2093
aF1.2107
aF1.2121
aF1.2135
aF1.2149
aF1.2163
aF1.2177
aF1.2191
aF1.2204
aF1.2218
aF1.2232
aF1.2246
aF1.226
aF1.2273999
aF1.2288001
aF1.2302001
aF1.2316
aF1.233
aF1.2343
aF1.2357
aF1.2371
aF1.2385
aF1.2399
aF1.2413
aF1.2427
aF1.2441
aF1.2455
aF1.2467999
aF1.2482001
aF1.2496001
aF1.251
aF1.2524
aF1.2538
aF1.2552
aF1.2566
aF1.258
aF1.2593
aF1.2607
aF1.2621
aF1.2635
aF1.2649
aF1.2663
aF1.2677
aF1.2691
aF1.2704999
aF1.2718
aF1.2732
aF1.2746
aF1.276
aF1.2774
aF1.2788
aF1.2802
aF1.2816
aF1.283
aF1.2843
aF1.2857
aF1.2871
aF1.2885
aF1.2898999
aF1.2913001
aF1.2927001
aF1.2941
aF1.2955
aF1.2969
aF1.2982
aF1.2996
asS'beam'
p7
(lp8
F-0.0255
aF-0.0255
aF-0.0261
aF-0.0257
aF-0.0244
aF-0.0261
aF-0.0265
aF-0.0264
aF-0.0254
aF-0.0255
aF-0.0265
aF-0.0264
aF-0.026
aF-0.0255
aF-0.0264
aF-0.026
aF-0.0255
aF-0.0267
aF-0.0256
aF-0.0258
aF-0.0256
aF-0.0269
aF-0.0249
aF-0.0257
aF-0.0259
aF-0.0267
aF0.2552
aF2.035
aF2.088
aF2.087
aF2.088
aF2.089
aF2.088
aF2.087
aF2.088
aF2.087
aF2.088
aF2.087
aF2.088
aF2.086
aF2.087
aF2.087
aF2.088
aF2.087
aF2.087
aF2.087
aF2.085
aF2.086
aF2.086
aF2.086
aF2.086
aF2.086
aF2.087
aF2.085
aF2.086
aF2.085
aF2.085
aF2.084
aF2.086
aF2.084
aF2.085
aF2.085
aF2.085
aF2.085
aF2.085
aF2.085
aF2.083
aF2.085
aF2.086
aF2.084
aF2.084
aF2.083
aF2.083
aF2.084
aF2.084
aF2.083
aF2.084
aF2.081
aF2.082
aF2.082
aF2.082
aF2.082
aF2.082
aF2.081
aF2.083
aF2.081
aF2.083
aF2.083
aF2.082
aF2.083
aF2.082
aF2.082
aF2.082
aF2.081
aF2.081
aF2.081
aF2.081
aF2.082
aF2.083
aF2.082
aF2.081
aF2.081
aF2.082
aF2.081
aF2.081
aF2.081
aF2.08
aF2.081
aF2.08
aF2.081
aF2.083
aF2.082
aF2.081
aF2.081
aF2.08
aF2.081
aF2.08
aF2.08
aF2.08
aF2.081
aF2.08
aF2.08
aF2.081
aF2.079
aF2.081
aF2.081
aF2.08
aF2.081
aF2.08
aF2.079
aF2.079
aF2.081
aF2.08
aF2.08
aF2.081
aF2.081
aF2.082
aF2.08
aF2.08
aF2.079
aF2.081
aF2.08
aF2.079
aF2.08
aF2.079
aF2.08
aF2.08
aF2.08
aF2.08
aF2.079
aF2.081
aF2.08
aF2.08
aF2.078
aF2.079
aF2.078
aF2.08
aF2.079
aF2.079
aF2.08
aF2.079
aF2.079
aF2.078
aF2.08
aF2.078
aF2.078
aF2.079
aF2.078
aF2.079
aF2.078
aF2.079
aF2.079
aF2.078
aF2.078
aF2.078
aF2.078
aF2.079
aF2.077
aF2.077
aF2.077
aF2.078
aF2.078
aF2.078
aF2.079
aF2.078
aF2.077
aF2.079
aF2.079
aF2.077
aF2.076
aF2.078
aF2.077
aF2.077
aF2.077
aF2.077
aF2.077
aF2.078
aF2.077
aF2.077
aF2.078
aF2.078
aF2.077
aF2.075
aF2.077
aF2.077
aF2.076
aF2.077
aF2.076
aF2.077
aF2.077
aF2.076
aF2.077
aF2.076
aF2.076
aF2.077
aF2.077
aF2.076
aF2.076
aF2.076
aF2.077
aF2.076
aF2.075
aF2.078
aF2.076
aF2.077
aF2.075
aF2.076
aF2.075
aF2.076
aF2.077
aF2.077
aF2.076
aF2.076
aF2.075
aF2.076
aF2.076
aF2.077
aF2.076
aF2.076
aF2.075
aF2.076
aF2.076
aF2.076
aF2.076
aF2.075
aF2.077
aF2.075
aF2.075
aF2.077
aF2.075
aF2.076
aF2.075
aF2.076
aF2.076
aF2.076
aF2.076
aF2.076
aF2.075
aF2.075
aF2.076
aF2.076
aF2.074
aF2.075
aF2.074
aF2.075
aF2.076
aF2.077
aF2.076
aF2.075
aF2.075
aF2.076
aF2.077
aF2.075
aF2.075
aF2.076
aF2.075
aF2.075
aF2.076
aF2.075
aF2.076
aF2.076
aF2.074
aF2.075
aF2.075
aF2.076
aF2.075
aF2.074
aF2.073
aF2.075
aF2.074
aF2.075
aF2.077
aF2.076
aF2.074
aF2.075
aF2.075
aF2.075
aF2.074
aF2.074
aF2.074
aF2.074
aF2.074
aF2.074
aF2.074
aF2.073
aF2.073
aF2.073
aF2.072
aF2.072
aF2.071
aF2.07
aF2.069
aF2.069
aF2.069
aF2.068
aF2.067
aF2.065
aF2.064
aF2.062
aF2.06
aF2.059
aF2.056
aF2.052
aF2.051
aF2.049
aF2.047
aF2.045
aF2.043
aF2.039
aF2.036
aF2.032
aF2.03
aF2.03
aF2.024
aF2.02
aF2.019
aF2.015
aF2.014
aF2.011
aF2.008
aF2.004
aF2.001
aF1.998
aF1.993
aF1.99
aF1.986
aF1.981
aF1.978
aF1.976
aF1.972
aF1.97
aF1.966
aF1.961
aF1.958
aF1.953
aF1.948
aF1.944
aF1.939
aF1.935
aF1.93
aF1.927
aF1.921
aF1.915
aF1.908
aF1.901
aF1.892
aF1.884
aF1.874
aF1.866
aF1.86
aF1.851
aF1.844
aF1.838
aF1.829
aF1.821
aF1.81
aF1.8
aF1.787
aF1.769
aF1.753
aF1.741
aF1.73
aF1.72
aF1.707
aF1.696
aF1.685
aF1.665
aF1.643
aF1.623
aF1.597
aF1.558
aF1.513
aF1.488
aF1.469
aF1.443
aF1.417
aF1.399
aF1.378
aF1.327
aF1.252
aF1.184
aF1.106
aF0.983
aF0.8693
aF0.8215
aF0.7976
aF0.7607
aF0.7305
aF0.7201
aF0.7045
aF0.67
aF0.6182
aF0.5617
aF0.5063
aF0.4229
aF0.3475
aF0.3191
aF0.3076
aF0.2841
aF0.2598
aF0.2518
aF0.2448
aF0.2251
aF0.1902
aF0.1587
aF0.1201
aF0.0772
aF0.0514
aF0.0442
aF0.0401
aF0.0385
aF0.035
aF0.0318
aF0.031
aF0.0257
aF0.0166
aF0.0104
aF0.0046
aF0.0025
aF-0.0009
aF-0.0032
aF-0.0047
aF-0.0068
aF-0.0072
aF-0.007
aF-0.0083
aF-0.0073
aF-0.0096
aF-0.0099
aF-0.011
aF-0.0113
aF-0.0133
aF-0.0115
aF-0.0141
aF-0.0132
aF-0.0148
aF-0.0151
aF-0.0145
aF-0.0139
aF-0.0145
aF-0.014
aF-0.0151
aF-0.0152
aF-0.0158
aF-0.0149
aF-0.0162
aF-0.0168
aF-0.0159
aF-0.0159
aF-0.0161
aF-0.0163
aF-0.0158
aF-0.017
aF-0.0161
aF-0.0173
aF-0.0161
aF-0.0157
aF-0.0166
aF-0.0173
aF-0.0166
aF-0.0164
aF-0.0166
aF-0.0159
aF-0.0154
aF-0.0165
aF-0.0169
aF-0.0155
aF-0.0163
aF-0.0155
aF-0.0149
aF-0.0172
aF-0.017
aF-0.0173
aF-0.0146
aF-0.0157
aF-0.0145
aF-0.0154
aF-0.0166
aF-0.0159
aF-0.0161
aF-0.016
aF-0.0164
aF-0.0162
aF-0.0159
aF-0.0176
aF-0.017
aF-0.0157
aF-0.0159
aF-0.0166
aF-0.0178
aF-0.0163
aF-0.0161
aF-0.0166
aF-0.015
aF-0.0169
aF-0.0162
aF-0.0168
aF-0.0154
aF-0.0168
aF-0.0157
aF-0.016
aF-0.0176
aF-0.0166
aF-0.0163
aF-0.0164
aF-0.0175
aF-0.0167
aF-0.018
aF-0.0164
aF-0.0162
aF-0.016
aF-0.0164
aF-0.0158
aF-0.0163
aF-0.016
aF-0.0168
aF-0.0161
aF-0.017
aF-0.0168
aF-0.0163
aF-0.0158
aF-0.0174
aF-0.0169
aF-0.0158
aF-0.0157
aF-0.0166
aF-0.0161
aF-0.0159
aF-0.0149
aF-0.0163
aF-0.0171
aF-0.0165
aF-0.0173
aF-0.0166
aF-0.016
aF-0.0175
aF-0.0164
aF-0.0168
aF-0.0163
aF-0.016
aF-0.0154
aF-0.0167
aF-0.0168
aF-0.0161
aF-0.0176
aF-0.0166
aF-0.0163
aF-0.0166
aF-0.0166
aF-0.0163
aF-0.0165
aF-0.0171
aF-0.0159
aF-0.0165
aF-0.0167
aF-0.018
aF-0.0253
aF-0.0265
aF-0.0257
aF-0.0239
aF-0.0254
aF-0.0267
aF-0.0266
aF-0.0257
aF-0.0249
aF-0.0265
aF-0.0255
aF-0.0261
aF-0.0259
aF-0.025
aF-0.0259
aF-0.0247
aF-0.0244
aF-0.0256
aF-0.0243
aF-0.0261
aF-0.0249
aF-0.0252
aF-0.0255
aF-0.026
aF-0.0256
aF-0.0266
aF-0.0234
aF-0.0249
aF-0.0248
aF-0.0265
aF-0.0248
aF-0.0258
aF-0.0256
aF-0.0255
aF-0.0274
aF-0.0264
aF-0.0263
aF-0.027
aF-0.0249
aF-0.0255
aF-0.025
aF-0.0257
aF-0.0248
aF-0.0249
aF-0.0243
aF-0.0272
aF-0.0268
aF-0.026
aF-0.0254
aF-0.0262
aF-0.0245
aF-0.0263
aF-0.0256
aF-0.0247
aF-0.0255
aF-0.0252
aF-0.0253
aF-0.0268
aF-0.0257
aF-0.0261
aF-0.0267
aF-0.0261
aF-0.0242
aF-0.0256
aF-0.0254
aF-0.027
aF-0.0269
aF-0.0246
aF-0.0244
aF-0.0262
aF-0.0274
aF-0.0269
aF-0.0255
aF-0.0256
aF-0.0259
aF-0.0245
aF-0.0263
aF-0.0242
aF-0.0257
aF-0.0266
aF-0.0252
aF-0.0266
aF-0.0259
aF-0.0269
aF-0.026
aF-0.0259
aF-0.0258
aF-0.026
aF-0.0255
aF-0.0253
aF-0.0262
aF-0.0258
aF-0.0257
aF-0.0264
aF-0.0269
aF-0.0257
aF-0.0252
aF-0.0264
aF-0.0254
aF-0.0247
aF-0.0258
aF-0.026
aF-0.0262
aF-0.026
aF-0.0253
aF-0.026
aF-0.0272
aF-0.0282
aF-0.0259
aF-0.0259
aF-0.0244
aF-0.0252
aF-0.0253
aF-0.0264
aF-0.0244
aF-0.0253
aF-0.0245
aF-0.025
aF-0.0264
aF-0.0265
aF-0.0261
aF-0.0256
aF-0.0247
aF-0.0236
aF-0.0249
aF-0.0264
aF-0.0259
aF-0.0249
aF-0.0257
aF-0.0269
aF-0.027
aF-0.0267
aF-0.0254
aF-0.027
aF-0.0261
aF-0.0258
aF-0.0258
aF-0.0266
aF-0.0254
aF-0.0258
aF-0.0247
aF-0.026
aF-0.0265
aF-0.0273
aF-0.0253
aF-0.0257
aF-0.0257
aF-0.0253
aF-0.0257
aF-0.0258
aF-0.0258
aF-0.0261
aF-0.0253
aF-0.0255
aF-0.0259
aF-0.0259
aF-0.0272
aF-0.0255
aF-0.0254
aF-0.0259
aF-0.0259
aF-0.0263
aF-0.0255
aF-0.0254
aF-0.0267
aF-0.027
aF-0.027
aF-0.0257
aF-0.0254
aF-0.0268
aF-0.0257
aF-0.0255
aF-0.0257
aF-0.0266
aF-0.027
aF-0.025
aF-0.0258
aF-0.0266
aF-0.026
aF-0.026
aF-0.0256
aF-0.0248
aF-0.0254
aF-0.0251
aF-0.0256
aF-0.0268
aF-0.0258
aF-0.0259
aF-0.0259
aF-0.0253
aF-0.0252
aF-0.0258
aF-0.0259
aF-0.0255
aF-0.026
aF-0.0241
aF-0.0256
aF-0.0261
aF-0.0259
aF-0.0249
aF-0.0253
aF-0.0253
aF-0.0265
aF-0.0271
aF-0.0258
aF-0.0259
aF-0.0257
aF-0.0248
aF-0.0254
aF-0.0258
aF-0.0251
aF-0.025
aF-0.0256
aF-0.0262
aF-0.0241
aF-0.0271
aF-0.026
aF-0.0264
aF-0.0256
aF-0.0256
aF-0.0264
aF-0.0247
aF-0.0251
aF-0.0239
aF-0.0265
aF-0.0261
aF-0.0257
aF-0.0266
aF-0.0247
aF-0.0239
aF-0.0256
aF-0.0258
aF-0.0264
aF-0.0252
aF-0.0264
aF-0.0254
aF-0.0253
aF-0.0262
aF-0.0257
aF-0.0256
aF-0.0241
aF-0.0255
aF-0.0249
aF-0.0263
aF-0.0246
aF-0.0262
aF-0.0243
aF-0.0248
aF-0.0253
aF-0.0265
aF-0.026
aF-0.0255
aF-0.026
aF-0.0263
aF-0.0242
aF-0.0252
aF-0.0246
aF-0.0256
aF-0.0255
aF-0.0251
aF-0.0263
aF-0.0256
aF-0.0269
aF-0.0267
aF-0.0254
aF-0.0264
aF-0.0256
aF-0.0259
aF-0.0265
aF-0.0252
aF-0.0253
aF-0.0246
aF-0.0249
aF-0.0253
aF-0.0255
aF-0.0256
aF-0.0258
aF-0.0257
aF-0.0241
aF-0.0251
aF-0.0254
aF-0.0264
aF-0.0257
aF-0.0262
aF-0.0245
aF-0.0251
aF-0.0269
aF-0.0267
aF-0.0241
aF-0.0249
aF-0.0254
aF-0.0253
aF-0.0247
aF-0.0255
aF-0.0251
aF-0.0248
aF-0.024
aF-0.0259
aF-0.0264
aF-0.0256
aF-0.0272
aF-0.0256
aF-0.0251
aF-0.0259
aF-0.0265
aF-0.0275
aF-0.0266
aF-0.0243
aF-0.0259
aF-0.0267
aF-0.0256
aF-0.0263
aF-0.0258
aF-0.0259
aF-0.0258
aF-0.0255
aF-0.0259
aF-0.0258
aF-0.0252
aF-0.0247
aF-0.0257
aF-0.0261
aF-0.0259
aF-0.0265
aF-0.0264
aF-0.0266
aF-0.0253
aF-0.0265
aF-0.0261
aF-0.0263
aF-0.0261
aF-0.025
aF-0.0265
aF-0.0253
aF-0.0252
aF-0.0273
aF-0.0262
aF-0.0263
aF-0.026
aF-0.0266
aF-0.025
aF-0.0272
aF-0.026
aF-0.0253
aF-0.0258
aF-0.0267
aF-0.0259
aF-0.0264
aF-0.026
aF-0.0248
aF-0.0265
aF-0.0247
aF-0.0268
aF-0.026
aF-0.0243
aF-0.0258
aF-0.0238
aF-0.026
aF-0.0251
aF-0.0258
asS'htune'
p9
(lp10
F25.399999547999997
aF25.32500069
asscnumpy.core.multiarray
scalar
p11
(cnumpy
dtype
p12
(S'i8'
p13
I0
I1
tp14
Rp15
(I3
S'<'
p16
NNNI-1
I-1
I0
tp17
bS'\x01\x00\x00\x00\x00\x00\x00\x00'
p18
tp19
Rp20
(dp21
S'i'
p22
I1
sS'vtune'
p23
(lp24
F24.450000784
aF24.450000784
asS'htune'
p25
(lp26
F25.399999547999997
aF25.32500069
asS'time'
p27
(lp28
F0.0012
aF0.0026
aF0.004
aF0.0053
aF0.0067
aF0.0081
aF0.0095
aF0.0109
aF0.0123
aF0.0137
aF0.0151
aF0.0165
aF0.0178
aF0.0192
aF0.0206
aF0.022
aF0.0234
aF0.0248
aF0.0262
aF0.0276
aF0.029
aF0.0303
aF0.0317
aF0.0331
aF0.0345
aF0.0359
aF0.0373
aF0.0387
aF0.0401
aF0.0415
aF0.0428
aF0.0442
aF0.0456
aF0.047
aF0.0484
aF0.0498
aF0.0512
aF0.0526
aF0.054
aF0.0554
aF0.0567
aF0.0581
aF0.0595
aF0.0609
aF0.0623
aF0.0637
aF0.0651
aF0.0665
aF0.0679
aF0.0692
aF0.0706
aF0.072
aF0.0734
aF0.0748
aF0.0762
aF0.0776
aF0.079
aF0.0804
aF0.0817
aF0.0831
aF0.0845
aF0.0859
aF0.0873
aF0.0887
aF0.0901
aF0.0915
aF0.0929
aF0.0942
aF0.0956
aF0.097
aF0.0984
aF0.0998
aF0.1012
aF0.1026
aF0.104
aF0.1054
aF0.1067
aF0.1081
aF0.1095
aF0.1109
aF0.1123
aF0.1137
aF0.1151
aF0.1165
aF0.1179
aF0.1193
aF0.1206
aF0.122
aF0.1234
aF0.1248
aF0.12620001
aF0.1276
aF0.12899999
aF0.1304
aF0.1318
aF0.1331
aF0.1345
aF0.13590001
aF0.1373
aF0.13869999
aF0.1401
aF0.1415
aF0.1429
aF0.1443
aF0.14560001
aF0.147
aF0.14839999
aF0.1498
aF0.1512
aF0.15260001
aF0.154
aF0.15539999
aF0.1568
aF0.15809999
aF0.1595
aF0.1609
aF0.16230001
aF0.1637
aF0.16509999
aF0.1665
aF0.1679
aF0.1693
aF0.1706
aF0.17200001
aF0.1734
aF0.17479999
aF0.1762
aF0.1776
aF0.17900001
aF0.1804
aF0.18179999
aF0.1832
aF0.18449999
aF0.1859
aF0.1873
aF0.18870001
aF0.1901
aF0.19149999
aF0.1929
aF0.1943
aF0.1957
aF0.197
aF0.19840001
aF0.1998
aF0.20119999
aF0.2026
aF0.204
aF0.2054
aF0.2068
aF0.20819999
aF0.2095
aF0.21089999
aF0.2123
aF0.2137
aF0.21510001
aF0.2165
aF0.21789999
aF0.2193
aF0.2207
aF0.222
aF0.2234
aF0.22480001
aF0.2262
aF0.22759999
aF0.229
aF0.2304
aF0.2318
aF0.2332
aF0.23450001
aF0.2359
aF0.23729999
aF0.2387
aF0.2401
aF0.24150001
aF0.2429
aF0.24429999
aF0.2457
aF0.2471
aF0.2484
aF0.2498
aF0.25119999
aF0.25260001
aF0.25400001
aF0.2554
aF0.2568
aF0.25819999
aF0.25960001
aF0.26089999
aF0.26230001
aF0.26370001
aF0.2651
aF0.2665
aF0.26789999
aF0.26930001
aF0.27070001
aF0.2721
aF0.27340001
aF0.2748
aF0.2762
aF0.27759999
aF0.27900001
aF0.28040001
aF0.2818
aF0.2832
aF0.28459999
aF0.2859
aF0.28729999
aF0.28870001
aF0.29010001
aF0.2915
aF0.2929
aF0.29429999
aF0.29570001
aF0.29710001
aF0.29840001
aF0.29980001
aF0.3012
aF0.3026
aF0.30399999
aF0.30540001
aF0.30680001
aF0.3082
aF0.3096
aF0.31099999
aF0.3123
aF0.31369999
aF0.31510001
aF0.31650001
aF0.3179
aF0.3193
aF0.32069999
aF0.32210001
aF0.32350001
aF0.32480001
aF0.32620001
aF0.3276
aF0.329
aF0.33039999
aF0.33180001
aF0.33320001
aF0.3346
aF0.336
aF0.3373
aF0.3387
aF0.34009999
aF0.34150001
aF0.34290001
aF0.3443
aF0.3457
aF0.34709999
aF0.34850001
aF0.34979999
aF0.35120001
aF0.35260001
aF0.354
aF0.3554
aF0.35679999
aF0.35820001
aF0.35960001
aF0.361
aF0.36230001
aF0.3637
aF0.3651
aF0.36649999
aF0.36790001
aF0.36930001
aF0.3707
aF0.3721
aF0.37349999
aF0.37490001
aF0.37619999
aF0.37760001
aF0.37900001
aF0.3804
aF0.3818
aF0.38319999
aF0.38460001
aF0.38600001
aF0.3874
aF0.38870001
aF0.3901
aF0.3915
aF0.39289999
aF0.39430001
aF0.39570001
aF0.3971
aF0.3985
aF0.39989999
aF0.4012
aF0.40259999
aF0.40400001
aF0.40540001
aF0.4068
aF0.4082
aF0.40959999
aF0.41100001
aF0.41240001
aF0.4138
aF0.41510001
aF0.4165
aF0.4179
aF0.41929999
aF0.42070001
aF0.42210001
aF0.4235
aF0.4249
aF0.4262
aF0.4276
aF0.42899999
aF0.43040001
aF0.43180001
aF0.4332
aF0.4346
aF0.43599999
aF0.43740001
aF0.43880001
aF0.44010001
aF0.44150001
aF0.4429
aF0.4443
aF0.44569999
aF0.44710001
aF0.44850001
aF0.4499
aF0.4513
aF0.4526
aF0.454
aF0.45539999
aF0.45680001
aF0.45820001
aF0.4596
aF0.461
aF0.46239999
aF0.46380001
aF0.46509999
aF0.46650001
aF0.46790001
aF0.4693
aF0.4707
aF0.47209999
aF0.47350001
aF0.47490001
aF0.4763
aF0.47760001
aF0.479
aF0.4804
aF0.48179999
aF0.48320001
aF0.48460001
aF0.486
aF0.4874
aF0.48879999
aF0.49020001
aF0.49149999
aF0.49290001
aF0.49430001
aF0.4957
aF0.4971
aF0.49849999
aF0.49990001
aF0.50129998
aF0.50269997
aF0.50400001
aF0.5054
aF0.5068
aF0.50819999
aF0.50959998
aF0.51099998
aF0.51239997
aF0.51380002
aF0.51520002
aF0.5165
aF0.51789999
aF0.51929998
aF0.52069998
aF0.52209997
aF0.52350003
aF0.52490002
aF0.52630001
aF0.52770001
aF0.52899998
aF0.53039998
aF0.53179997
aF0.53320003
aF0.53460002
aF0.53600001
aF0.53740001
aF0.5388
aF0.5402
aF0.54149997
aF0.54290003
aF0.54430002
aF0.54570001
aF0.54710001
aF0.5485
aF0.5499
aF0.55129999
aF0.55269998
aF0.55409998
aF0.55540001
aF0.55680001
aF0.5582
aF0.5596
aF0.56099999
aF0.56239998
aF0.56379998
aF0.56519997
aF0.56660002
aF0.5679
aF0.5693
aF0.57069999
aF0.57209998
aF0.57349998
aF0.57489997
aF0.57630002
aF0.57770002
aF0.57910001
aF0.58039999
aF0.58179998
aF0.58319998
aF0.58459997
aF0.58600003
aF0.58740002
aF0.58880001
aF0.59020001
aF0.5916
aF0.59289998
aF0.59429997
aF0.59570003
aF0.59710002
aF0.59850001
aF0.59990001
aF0.6013
aF0.6027
aF0.60409999
aF0.60540003
aF0.60680002
aF0.60820001
aF0.60960001
aF0.611
aF0.6124
aF0.61379999
aF0.61519998
aF0.61659998
aF0.61799997
aF0.61930001
aF0.6207
aF0.6221
aF0.62349999
aF0.62489998
aF0.62629998
aF0.62769997
aF0.62910002
aF0.63050002
aF0.6318
aF0.63319999
aF0.63459998
aF0.63599998
aF0.63739997
aF0.63880002
aF0.64020002
aF0.64160001
aF0.64300001
aF0.64429998
aF0.64569998
aF0.64709997
aF0.64850003
aF0.64990002
aF0.65130001
aF0.65270001
aF0.6541
aF0.65549999
aF0.65679997
aF0.65820003
aF0.65960002
aF0.66100001
aF0.66240001
aF0.6638
aF0.6652
aF0.66659999
aF0.66799998
aF0.66939998
aF0.67070001
aF0.67210001
aF0.6735
aF0.6749
aF0.67629999
aF0.67769998
aF0.67909998
aF0.68049997
aF0.68190002
aF0.6832
aF0.6846
aF0.68599999
aF0.68739998
aF0.68879998
aF0.69019997
aF0.69160002
aF0.69300002
aF0.69440001
aF0.69569999
aF0.69709998
aF0.69849998
aF0.69989997
aF0.70130002
aF0.70270002
aF0.70410001
aF0.70550001
aF0.7069
aF0.70819998
aF0.70959997
aF0.71100003
aF0.71240002
aF0.71380001
aF0.71520001
aF0.7166
aF0.71799999
aF0.71939999
aF0.72070003
aF0.72210002
aF0.72350001
aF0.72490001
aF0.7263
aF0.7277
aF0.72909999
aF0.73049998
aF0.73189998
aF0.73320001
aF0.73460001
aF0.736
aF0.7374
aF0.73879999
aF0.74019998
aF0.74159998
aF0.74299997
aF0.74440002
aF0.74580002
aF0.7471
aF0.74849999
aF0.74989998
aF0.75129998
aF0.75269997
aF0.75410002
aF0.75550002
aF0.75690001
aF0.75830001
aF0.75959998
aF0.76099998
aF0.76239997
aF0.76380002
aF0.76520002
aF0.76660001
aF0.76800001
aF0.7694
aF0.77079999
aF0.77209997
aF0.77350003
aF0.77490002
aF0.77630001
aF0.77770001
aF0.7791
aF0.78049999
aF0.78189999
aF0.78329998
aF0.78460002
aF0.78600001
aF0.78740001
aF0.7888
aF0.7902
aF0.79159999
aF0.79299998
aF0.79439998
aF0.79579997
aF0.79720002
aF0.7985
aF0.7999
aF0.80129999
aF0.80269998
aF0.80409998
aF0.80549997
aF0.80690002
aF0.80830002
aF0.80970001
aF0.81099999
aF0.81239998
aF0.81379998
aF0.81519997
aF0.81660002
aF0.81800002
aF0.81940001
aF0.82080001
aF0.8222
aF0.82349998
aF0.82489997
aF0.82630002
aF0.82770002
aF0.82910001
aF0.83050001
aF0.8319
aF0.83329999
aF0.83469999
aF0.83600003
aF0.83740002
aF0.83880001
aF0.84020001
aF0.8416
aF0.84299999
aF0.84439999
aF0.84579998
aF0.84719998
aF0.84850001
aF0.84990001
aF0.8513
aF0.8527
aF0.85409999
aF0.85549998
aF0.85689998
aF0.85829997
aF0.85970002
aF0.86110002
aF0.8624
aF0.86379999
aF0.86519998
aF0.86659998
aF0.86799997
aF0.86940002
aF0.87080002
aF0.87220001
aF0.87360001
aF0.87489998
aF0.87629998
aF0.87769997
aF0.87910002
aF0.88050002
aF0.88190001
aF0.88330001
aF0.8847
aF0.88609999
aF0.88739997
aF0.88880002
aF0.89020002
aF0.89020002
aF0.89160001
aF0.89300001
aF0.8944
aF0.89579999
aF0.89719999
aF0.89990002
aF0.90130001
aF0.90270001
aF0.9041
aF0.90549999
aF0.90689999
aF0.90689999
aF0.90829998
aF0.90969998
aF0.91109997
aF0.91250002
aF0.9138
aF0.91659999
aF0.91799998
aF0.91939998
aF0.92079997
aF0.92220002
aF0.92360002
aF0.92360002
aF0.92500001
aF0.92629999
aF0.92769998
aF0.92909998
aF0.93049997
aF0.93330002
aF0.93470001
aF0.93610001
aF0.9375
aF0.93879998
aF0.94019997
aF0.94019997
aF0.94160002
aF0.94300002
aF0.94440001
aF0.94580001
aF0.9472
aF0.94999999
aF0.95139998
aF0.95270002
aF0.95410001
aF0.95550001
aF0.9569
aF0.9569
aF0.95829999
aF0.95969999
aF0.96109998
aF0.96249998
aF0.96380001
aF0.9666
aF0.96799999
aF0.96799999
aF0.96939999
aF0.97079998
aF0.97219998
aF0.97359997
aF0.97500002
aF0.9763
aF0.9777
aF0.97909999
aF0.98049998
aF0.98189998
aF0.98470002
aF0.98610002
aF0.98750001
aF0.98750001
aF0.98890001
aF0.9903
aF0.99159998
aF0.99299997
aF0.99440002
aF0.99580002
aF0.99720001
aF0.99860001
aF1.0014
aF1.0014
aF1.0028
aF1.0041
aF1.0055
aF1.0069
aF1.0082999
aF1.0096999
aF1.0111001
aF1.0125
aF1.0139
aF1.0152
aF1.0166
aF1.0181
aF1.0194
aF1.0208
aF1.0222
aF1.0236
aF1.025
aF1.0264
aF1.0276999
aF1.0290999
aF1.0305001
aF1.0319
aF1.0333
aF1.0347
aF1.0361
aF1.0375
aF1.0389
aF1.0402
aF1.0416
aF1.043
aF1.0444
aF1.0458
aF1.0472
aF1.0486
aF1.05
aF1.0513999
aF1.0528001
aF1.0541
aF1.0555
aF1.0569
aF1.0583
aF1.0597
aF1.0611
aF1.0625
aF1.0639
aF1.0653
aF1.0666
aF1.0681
aF1.0694
aF1.0707999
aF1.0721999
aF1.0736001
aF1.075
aF1.0764
aF1.0778
aF1.0791
aF1.0805
aF1.0819
aF1.0833
aF1.0847
aF1.0861
aF1.0875
aF1.0889
aF1.0903
aF1.0915999
aF1.0930001
aF1.0944
aF1.0958
aF1.0972
aF1.0986
aF1.1
aF1.1014
aF1.1028
aF1.1042
aF1.1055
aF1.1069
aF1.1083
aF1.1097
aF1.1111
aF1.1125
aF1.1138999
aF1.1153001
aF1.1167001
aF1.118
aF1.1194
aF1.1208
aF1.1222
aF1.1236
aF1.125
aF1.1264
aF1.1278
aF1.1292
aF1.1305
aF1.1319
aF1.1332999
aF1.1346999
aF1.1361001
aF1.1375
aF1.1389
aF1.1403
aF1.1417
aF1.143
aF1.1444
aF1.1458
aF1.1472
aF1.1486
aF1.15
aF1.1514
aF1.1528
aF1.1542
aF1.1555001
aF1.1569
aF1.1583
aF1.1597
aF1.1611
aF1.1625
aF1.1639
aF1.1653
aF1.1667
aF1.1681
aF1.1694
aF1.1708
aF1.1722
aF1.1736
aF1.175
aF1.1763999
aF1.1778001
aF1.1792001
aF1.1806
aF1.1819
aF1.1833
aF1.1847
aF1.1861
aF1.1875
aF1.1889
aF1.1903
aF1.1917
aF1.1931
aF1.1944
aF1.1957999
aF1.1971999
aF1.1986001
aF1.2
aF1.2014
aF1.2028
aF1.2042
aF1.2056
aF1.2069
aF1.2083
aF1.2097
aF1.2111
aF1.2125
aF1.2139
aF1.2153
aF1.2167
aF1.2181
aF1.2194
aF1.2208
aF1.2222
aF1.2236
aF1.225
aF1.2264
aF1.2278
aF1.2292
aF1.2306
aF1.232
aF1.2333
aF1.2347
aF1.2361
aF1.2375
aF1.2388999
aF1.2403001
aF1.2417001
aF1.2431
aF1.2445
aF1.2458
aF1.2472
aF1.2486
aF1.25
aF1.2514
aF1.2528
aF1.2542
aF1.2556
aF1.257
aF1.2582999
aF1.2596999
aF1.2611001
aF1.2625
aF1.2639
aF1.2653
aF1.2667
aF1.2681
aF1.2695
aF1.2708
aF1.2722
aF1.2736
aF1.275
aF1.2764
aF1.2778
aF1.2792
aF1.2806
aF1.2819999
aF1.2833
aF1.2847
aF1.2861
aF1.2875
aF1.2889
aF1.2903
aF1.2917
aF1.2931
aF1.2945
aF1.2959
aF1.2972
aF1.2986
aF1.3
asS'beam'
p29
(lp30
F-0.0277
aF-0.0268
aF-0.0254
aF-0.0248
aF-0.0253
aF-0.0259
aF-0.026
aF-0.0262
aF-0.0246
aF-0.026
aF-0.0258
aF-0.0269
aF-0.0265
aF-0.0259
aF-0.0257
aF-0.0251
aF-0.0259
aF-0.0266
aF-0.0262
aF-0.0248
aF-0.0254
aF-0.0254
aF-0.0254
aF-0.0264
aF-0.0257
aF-0.0251
aF0.6589
aF2.076
aF2.086
aF2.085
aF2.086
aF2.085
aF2.086
aF2.084
aF2.086
aF2.087
aF2.085
aF2.084
aF2.086
aF2.085
aF2.085
aF2.085
aF2.085
aF2.084
aF2.084
aF2.084
aF2.084
aF2.083
aF2.083
aF2.085
aF2.084
aF2.085
aF2.083
aF2.083
aF2.083
aF2.083
aF2.082
aF2.082
aF2.082
aF2.082
aF2.082
aF2.083
aF2.083
aF2.083
aF2.082
aF2.083
aF2.083
aF2.083
aF2.081
aF2.08
aF2.08
aF2.08
aF2.082
aF2.079
aF2.081
aF2.081
aF2.08
aF2.08
aF2.08
aF2.08
aF2.078
aF2.079
aF2.08
aF2.08
aF2.081
aF2.081
aF2.079
aF2.08
aF2.08
aF2.078
aF2.081
aF2.08
aF2.079
aF2.079
aF2.079
aF2.08
aF2.08
aF2.079
aF2.08
aF2.081
aF2.079
aF2.078
aF2.08
aF2.08
aF2.079
aF2.079
aF2.08
aF2.079
aF2.079
aF2.079
aF2.08
aF2.08
aF2.077
aF2.078
aF2.08
aF2.081
aF2.079
aF2.078
aF2.078
aF2.078
aF2.079
aF2.079
aF2.079
aF2.078
aF2.079
aF2.078
aF2.079
aF2.079
aF2.079
aF2.078
aF2.078
aF2.078
aF2.078
aF2.079
aF2.079
aF2.079
aF2.078
aF2.078
aF2.079
aF2.078
aF2.078
aF2.078
aF2.077
aF2.078
aF2.077
aF2.077
aF2.077
aF2.078
aF2.078
aF2.079
aF2.077
aF2.077
aF2.079
aF2.078
aF2.077
aF2.077
aF2.077
aF2.077
aF2.077
aF2.078
aF2.076
aF2.077
aF2.077
aF2.077
aF2.077
aF2.077
aF2.078
aF2.076
aF2.078
aF2.078
aF2.077
aF2.077
aF2.077
aF2.076
aF2.077
aF2.076
aF2.077
aF2.076
aF2.076
aF2.076
aF2.075
aF2.077
aF2.076
aF2.076
aF2.075
aF2.075
aF2.076
aF2.075
aF2.075
aF2.075
aF2.076
aF2.075
aF2.076
aF2.076
aF2.075
aF2.075
aF2.075
aF2.073
aF2.077
aF2.075
aF2.074
aF2.074
aF2.075
aF2.074
aF2.075
aF2.075
aF2.075
aF2.075
aF2.075
aF2.074
aF2.075
aF2.076
aF2.074
aF2.075
aF2.075
aF2.074
aF2.074
aF2.074
aF2.076
aF2.074
aF2.075
aF2.074
aF2.075
aF2.076
aF2.075
aF2.074
aF2.074
aF2.073
aF2.075
aF2.074
aF2.075
aF2.075
aF2.073
aF2.075
aF2.075
aF2.074
aF2.075
aF2.073
aF2.074
aF2.074
aF2.074
aF2.074
aF2.074
aF2.076
aF2.074
aF2.073
aF2.075
aF2.075
aF2.074
aF2.074
aF2.074
aF2.073
aF2.074
aF2.074
aF2.074
aF2.074
aF2.075
aF2.073
aF2.075
aF2.074
aF2.074
aF2.073
aF2.074
aF2.074
aF2.075
aF2.074
aF2.075
aF2.074
aF2.074
aF2.074
aF2.074
aF2.075
aF2.074
aF2.074
aF2.073
aF2.074
aF2.074
aF2.075
aF2.074
aF2.074
aF2.073
aF2.074
aF2.073
aF2.074
aF2.073
aF2.072
aF2.073
aF2.073
aF2.073
aF2.074
aF2.074
aF2.073
aF2.073
aF2.072
aF2.073
aF2.074
aF2.073
aF2.071
aF2.072
aF2.072
aF2.072
aF2.071
aF2.072
aF2.072
aF2.072
aF2.07
aF2.07
aF2.069
aF2.07
aF2.069
aF2.068
aF2.068
aF2.067
aF2.066
aF2.065
aF2.066
aF2.063
aF2.061
aF2.061
aF2.06
aF2.058
aF2.055
aF2.054
aF2.053
aF2.05
aF2.048
aF2.047
aF2.046
aF2.043
aF2.039
aF2.038
aF2.034
aF2.033
aF2.031
aF2.029
aF2.026
aF2.025
aF2.022
aF2.018
aF2.017
aF2.014
aF2.008
aF2.005
aF2.0
aF1.999
aF1.996
aF1.991
aF1.988
aF1.982
aF1.981
aF1.976
aF1.971
aF1.966
aF1.961
aF1.956
aF1.95
aF1.945
aF1.94
aF1.935
aF1.932
aF1.927
aF1.924
aF1.917
aF1.911
aF1.904
aF1.897
aF1.888
aF1.881
aF1.876
aF1.87
aF1.862
aF1.855
aF1.85
aF1.843
aF1.833
aF1.823
aF1.812
aF1.799
aF1.781
aF1.766
aF1.755
aF1.743
aF1.73
aF1.717
aF1.709
aF1.694
aF1.673
aF1.65
aF1.625
aF1.582
aF1.521
aF1.477
aF1.449
aF1.425
aF1.4
aF1.379
aF1.364
aF1.335
aF1.268
aF1.2
aF1.138
aF1.061
aF0.9574
aF0.8841
aF0.8522
aF0.8209
aF0.7829
aF0.7622
aF0.7503
aF0.7315
aF0.687
aF0.617
aF0.5386
aF0.4445
aF0.3366
aF0.2771
aF0.2609
aF0.2509
aF0.2398
aF0.2319
aF0.2277
aF0.2197
aF0.1935
aF0.16
aF0.1347
aF0.1053
aF0.0686
aF0.0487
aF0.0421
aF0.0365
aF0.0303
aF0.0282
aF0.0265
aF0.0239
aF0.0179
aF0.0112
aF0.0056
aF0.0019
aF-0.003
aF-0.0041
aF-0.0061
aF-0.0077
aF-0.0084
aF-0.0092
aF-0.009
aF-0.0098
aF-0.0099
aF-0.0105
aF-0.0117
aF-0.0126
aF-0.0136
aF-0.0141
aF-0.015
aF-0.0154
aF-0.0166
aF-0.0166
aF-0.0159
aF-0.0152
aF-0.0156
aF-0.0163
aF-0.0169
aF-0.0174
aF-0.0168
aF-0.0173
aF-0.0167
aF-0.0182
aF-0.0172
aF-0.0184
aF-0.0196
aF-0.0172
aF-0.0175
aF-0.0179
aF-0.0184
aF-0.0179
aF-0.0177
aF-0.0174
aF-0.0185
aF-0.0185
aF-0.0182
aF-0.0186
aF-0.0191
aF-0.018
aF-0.0172
aF-0.0176
aF-0.0182
aF-0.0191
aF-0.0182
aF-0.0166
aF-0.0182
aF-0.019
aF-0.0189
aF-0.0184
aF-0.0174
aF-0.0168
aF-0.0181
aF-0.0187
aF-0.0186
aF-0.0187
aF-0.0179
aF-0.0196
aF-0.0179
aF-0.0191
aF-0.0197
aF-0.0181
aF-0.0181
aF-0.0191
aF-0.0184
aF-0.0175
aF-0.019
aF-0.0186
aF-0.0182
aF-0.0177
aF-0.0181
aF-0.0193
aF-0.0198
aF-0.0189
aF-0.0191
aF-0.018
aF-0.0186
aF-0.0173
aF-0.0191
aF-0.0189
aF-0.0193
aF-0.0188
aF-0.0181
aF-0.0193
aF-0.0188
aF-0.0192
aF-0.0185
aF-0.0192
aF-0.0197
aF-0.0176
aF-0.0186
aF-0.0181
aF-0.0191
aF-0.0187
aF-0.0195
aF-0.0196
aF-0.0183
aF-0.0184
aF-0.0187
aF-0.0192
aF-0.0184
aF-0.0195
aF-0.0181
aF-0.0189
aF-0.0202
aF-0.0188
aF-0.0182
aF-0.0192
aF-0.0191
aF-0.0181
aF-0.0189
aF-0.0173
aF-0.0184
aF-0.0186
aF-0.0197
aF-0.019
aF-0.0182
aF-0.0183
aF-0.0194
aF-0.0183
aF-0.0188
aF-0.0192
aF-0.0186
aF-0.0193
aF-0.0177
aF-0.0189
aF-0.0194
aF-0.0193
aF-0.0184
aF-0.0185
aF-0.019
aF-0.0188
aF-0.0182
aF-0.0213
aF-0.026
aF-0.0251
aF-0.0249
aF-0.0251
aF-0.0245
aF-0.0268
aF-0.0259
aF-0.0249
aF-0.0258
aF-0.025
aF-0.0267
aF-0.0258
aF-0.0261
aF-0.0263
aF-0.0244
aF-0.0241
aF-0.026
aF-0.0256
aF-0.0262
aF-0.0257
aF-0.0252
aF-0.0255
aF-0.0267
aF-0.0255
aF-0.0253
aF-0.0253
aF-0.0264
aF-0.0249
aF-0.0275
aF-0.0261
aF-0.0262
aF-0.0251
aF-0.0262
aF-0.0266
aF-0.0262
aF-0.0255
aF-0.0271
aF-0.0263
aF-0.025
aF-0.025
aF-0.0259
aF-0.0272
aF-0.0249
aF-0.0257
aF-0.0266
aF-0.0252
aF-0.025
aF-0.0268
aF-0.0252
aF-0.0249
aF-0.0254
aF-0.0256
aF-0.026
aF-0.0269
aF-0.025
aF-0.0254
aF-0.0257
aF-0.0267
aF-0.0258
aF-0.026
aF-0.0266
aF-0.0252
aF-0.0248
aF-0.0257
aF-0.0257
aF-0.0257
aF-0.0258
aF-0.0257
aF-0.0248
aF-0.0254
aF-0.0262
aF-0.0254
aF-0.0267
aF-0.025
aF-0.0254
aF-0.0255
aF-0.0257
aF-0.0257
aF-0.0255
aF-0.0261
aF-0.0245
aF-0.0261
aF-0.027
aF-0.0252
aF-0.0248
aF-0.0254
aF-0.0257
aF-0.0248
aF-0.0262
aF-0.0262
aF-0.0263
aF-0.0269
aF-0.0253
aF-0.0266
aF-0.0258
aF-0.0262
aF-0.0264
aF-0.0252
aF-0.0247
aF-0.0242
aF-0.0269
aF-0.0269
aF-0.0258
aF-0.0257
aF-0.0255
aF-0.0246
aF-0.026
aF-0.0256
aF-0.0263
aF-0.0253
aF-0.0249
aF-0.0247
aF-0.0256
aF-0.0256
aF-0.0263
aF-0.0251
aF-0.0253
aF-0.0244
aF-0.0258
aF-0.0261
aF-0.0249
aF-0.0249
aF-0.0259
aF-0.026
aF-0.0253
aF-0.026
aF-0.0253
aF-0.0258
aF-0.0254
aF-0.026
aF-0.0258
aF-0.0263
aF-0.0252
aF-0.0251
aF-0.0261
aF-0.0261
aF-0.0245
aF-0.0259
aF-0.0258
aF-0.0257
aF-0.0254
aF-0.0261
aF-0.0256
aF-0.0267
aF-0.0261
aF-0.0261
aF-0.0257
aF-0.025
aF-0.0254
aF-0.0255
aF-0.0255
aF-0.0263
aF-0.0256
aF-0.0254
aF-0.0259
aF-0.0254
aF-0.0264
aF-0.0256
aF-0.0251
aF-0.0248
aF-0.0259
aF-0.025
aF-0.0244
aF-0.0252
aF-0.0255
aF-0.0261
aF-0.0261
aF-0.0252
aF-0.026
aF-0.0265
aF-0.0261
aF-0.0254
aF-0.0255
aF-0.0271
aF-0.0263
aF-0.025
aF-0.0259
aF-0.026
aF-0.0252
aF-0.0251
aF-0.0268
aF-0.0244
aF-0.0256
aF-0.0247
aF-0.0247
aF-0.0252
aF-0.0278
aF-0.0263
aF-0.0257
aF-0.0259
aF-0.027
aF-0.0271
aF-0.0261
aF-0.0263
aF-0.0262
aF-0.0257
aF-0.0253
aF-0.0257
aF-0.0263
aF-0.0251
aF-0.0242
aF-0.0265
aF-0.0258
aF-0.0262
aF-0.0254
aF-0.0266
aF-0.0251
aF-0.0249
aF-0.0264
aF-0.0259
aF-0.0255
aF-0.0258
aF-0.0259
aF-0.0256
aF-0.0256
aF-0.0261
aF-0.0263
aF-0.0245
aF-0.0254
aF-0.0247
aF-0.0247
aF-0.0268
aF-0.027
aF-0.0246
aF-0.0254
aF-0.0251
aF-0.0263
aF-0.0254
aF-0.0261
aF-0.026
aF-0.0251
aF-0.0255
aF-0.0247
aF-0.0271
aF-0.0269
aF-0.0244
aF-0.025
aF-0.0258
aF-0.0277
aF-0.0263
aF-0.0252
aF-0.0256
aF-0.0247
aF-0.0245
aF-0.0257
aF-0.0259
aF-0.025
aF-0.0239
aF-0.025
aF-0.0257
aF-0.0244
aF-0.0265
aF-0.0263
aF-0.0263
aF-0.0247
aF-0.0256
aF-0.0244
aF-0.026
aF-0.0262
aF-0.0251
aF-0.0256
aF-0.0256
aF-0.0273
aF-0.0265
aF-0.0266
aF-0.0261
aF-0.0258
aF-0.0254
aF-0.0256
aF-0.025
aF-0.0266
aF-0.0265
aF-0.0244
aF-0.0258
aF-0.0252
aF-0.0253
aF-0.0259
aF-0.0266
aF-0.0262
aF-0.0257
aF-0.0262
aF-0.0261
aF-0.0252
aF-0.0254
aF-0.026
aF-0.0258
aF-0.0274
aF-0.0267
aF-0.0264
aF-0.0251
aF-0.0252
aF-0.0255
aF-0.0252
aF-0.0274
aF-0.0268
aF-0.0255
aF-0.0248
aF-0.026
aF-0.0254
aF-0.0257
aF-0.0254
aF-0.0251
aF-0.0246
aF-0.0269
aF-0.0259
aF-0.026
aF-0.0258
aF-0.0254
aF-0.0258
aF-0.0254
aF-0.026
aF-0.0272
aF-0.0255
aF-0.0259
aF-0.0262
aF-0.0246
aF-0.0256
aF-0.0265
aF-0.0267
aF-0.0253
aF-0.0251
aF-0.0251
aF-0.0253
aF-0.0258
aF-0.0263
aF-0.0267
aF-0.0244
aF-0.0267
aF-0.0255
aF-0.0252
aF-0.0261
aF-0.0261
aF-0.0253
aF-0.0266
aF-0.0264
aF-0.0271
aF-0.0262
aF-0.0252
aF-0.0261
aF-0.0249
aF-0.0256
aF-0.0255
aF-0.0256
aF-0.0262
aF-0.0246
aF-0.0261
aF-0.0268
aF-0.0261
aF-0.0262
aF-0.0279
aF-0.0248
aF-0.025
aF-0.0246
aF-0.0266
aF-0.0261
aF-0.0253
aF-0.0273
aF-0.0262
aF-0.0257
aF-0.0272
aF-0.0262
assg11
(g15
S'\x02\x00\x00\x00\x00\x00\x00\x00'
p31
tp32
Rp33
(dp34
S'vtune'
p35
(lp36
F24.450000784
aF24.450000784
asS'beam'
p37
(lp38
F-0.027
aF-0.025
aF-0.0251
aF-0.0265
aF-0.0241
aF-0.0262
aF-0.0265
aF-0.025
aF-0.0259
aF-0.0263
aF-0.0263
aF-0.0267
aF-0.0258
aF-0.0253
aF-0.0256
aF-0.0252
aF-0.0258
aF-0.026
aF-0.0264
aF-0.0257
aF-0.0259
aF-0.0257
aF-0.0265
aF-0.0272
aF-0.0241
aF-0.0272
aF0.2768
aF2.046
aF2.096
aF2.095
aF2.096
aF2.096
aF2.096
aF2.096
aF2.095
aF2.096
aF2.096
aF2.095
aF2.096
aF2.095
aF2.095
aF2.095
aF2.096
aF2.095
aF2.094
aF2.095
aF2.094
aF2.094
aF2.094
aF2.095
aF2.095
aF2.096
aF2.094
aF2.094
aF2.094
aF2.094
aF2.094
aF2.093
aF2.095
aF2.093
aF2.094
aF2.094
aF2.094
aF2.093
aF2.093
aF2.094
aF2.093
aF2.093
aF2.092
aF2.092
aF2.092
aF2.093
aF2.091
aF2.092
aF2.092
aF2.093
aF2.092
aF2.092
aF2.091
aF2.091
aF2.091
aF2.09
aF2.09
aF2.09
aF2.092
aF2.091
aF2.091
aF2.091
aF2.09
aF2.091
aF2.091
aF2.091
aF2.091
aF2.089
aF2.09
aF2.09
aF2.091
aF2.091
aF2.09
aF2.091
aF2.089
aF2.09
aF2.092
aF2.091
aF2.091
aF2.09
aF2.09
aF2.088
aF2.091
aF2.091
aF2.09
aF2.091
aF2.09
aF2.09
aF2.091
aF2.091
aF2.09
aF2.089
aF2.091
aF2.091
aF2.089
aF2.091
aF2.09
aF2.09
aF2.09
aF2.089
aF2.09
aF2.091
aF2.09
aF2.089
aF2.088
aF2.09
aF2.089
aF2.089
aF2.091
aF2.091
aF2.089
aF2.088
aF2.089
aF2.089
aF2.089
aF2.09
aF2.089
aF2.089
aF2.089
aF2.089
aF2.09
aF2.09
aF2.088
aF2.088
aF2.089
aF2.089
aF2.088
aF2.088
aF2.088
aF2.088
aF2.089
aF2.09
aF2.089
aF2.09
aF2.089
aF2.087
aF2.089
aF2.088
aF2.088
aF2.087
aF2.087
aF2.087
aF2.087
aF2.087
aF2.088
aF2.087
aF2.087
aF2.087
aF2.088
aF2.088
aF2.088
aF2.087
aF2.087
aF2.086
aF2.087
aF2.087
aF2.088
aF2.088
aF2.088
aF2.087
aF2.087
aF2.087
aF2.088
aF2.087
aF2.087
aF2.085
aF2.087
aF2.086
aF2.086
aF2.087
aF2.086
aF2.086
aF2.088
aF2.086
aF2.087
aF2.086
aF2.086
aF2.085
aF2.086
aF2.085
aF2.088
aF2.086
aF2.086
aF2.085
aF2.086
aF2.087
aF2.086
aF2.087
aF2.085
aF2.087
aF2.085
aF2.085
aF2.087
aF2.087
aF2.086
aF2.086
aF2.086
aF2.086
aF2.087
aF2.085
aF2.085
aF2.086
aF2.085
aF2.085
aF2.088
aF2.085
aF2.087
aF2.086
aF2.086
aF2.086
aF2.086
aF2.086
aF2.085
aF2.085
aF2.087
aF2.086
aF2.085
aF2.088
aF2.085
aF2.085
aF2.086
aF2.085
aF2.086
aF2.085
aF2.085
aF2.086
aF2.085
aF2.084
aF2.086
aF2.086
aF2.085
aF2.085
aF2.086
aF2.085
aF2.085
aF2.085
aF2.084
aF2.086
aF2.085
aF2.086
aF2.086
aF2.084
aF2.085
aF2.085
aF2.086
aF2.086
aF2.085
aF2.085
aF2.086
aF2.085
aF2.085
aF2.085
aF2.085
aF2.085
aF2.085
aF2.084
aF2.085
aF2.084
aF2.084
aF2.083
aF2.083
aF2.082
aF2.084
aF2.084
aF2.084
aF2.082
aF2.081
aF2.08
aF2.081
aF2.079
aF2.078
aF2.076
aF2.077
aF2.076
aF2.074
aF2.076
aF2.075
aF2.072
aF2.072
aF2.071
aF2.071
aF2.07
aF2.069
aF2.066
aF2.066
aF2.065
aF2.064
aF2.063
aF2.062
aF2.061
aF2.057
aF2.057
aF2.056
aF2.053
aF2.051
aF2.048
aF2.047
aF2.044
aF2.042
aF2.04
aF2.038
aF2.035
aF2.032
aF2.028
aF2.026
aF2.021
aF2.018
aF2.013
aF2.009
aF2.003
aF1.999
aF1.994
aF1.989
aF1.983
aF1.979
aF1.973
aF1.968
aF1.962
aF1.959
aF1.952
aF1.947
aF1.941
aF1.936
aF1.931
aF1.926
aF1.92
aF1.913
aF1.907
aF1.901
aF1.894
aF1.888
aF1.881
aF1.875
aF1.869
aF1.863
aF1.857
aF1.851
aF1.844
aF1.836
aF1.827
aF1.817
aF1.808
aF1.8
aF1.792
aF1.786
aF1.777
aF1.772
aF1.764
aF1.756
aF1.745
aF1.736
aF1.723
aF1.709
aF1.694
aF1.681
aF1.671
aF1.658
aF1.647
aF1.64
aF1.627
aF1.609
aF1.585
aF1.562
aF1.532
aF1.488
aF1.449
aF1.424
aF1.402
aF1.372
aF1.34
aF1.321
aF1.295
aF1.24
aF1.174
aF1.12
aF1.058
aF0.9656
aF0.8791
aF0.8365
aF0.809
aF0.7724
aF0.7484
aF0.7358
aF0.7147
aF0.6687
aF0.6048
aF0.5482
aF0.4766
aF0.3841
aF0.3182
aF0.2969
aF0.2869
aF0.2758
aF0.2672
aF0.261
aF0.2519
aF0.2216
aF0.1803
aF0.1491
aF0.117
aF0.0686
aF0.0405
aF0.0325
aF0.03
aF0.0275
aF0.0246
aF0.0229
aF0.021
aF0.0153
aF0.0078
aF0.0042
aF-0.0003
aF-0.0027
aF-0.0057
aF-0.0068
aF-0.0092
aF-0.0097
aF-0.0108
aF-0.0112
aF-0.0118
aF-0.0117
aF-0.0122
aF-0.0145
aF-0.0145
aF-0.0156
aF-0.0149
aF-0.0161
aF-0.0157
aF-0.0174
aF-0.0174
aF-0.017
aF-0.0181
aF-0.0174
aF-0.0174
aF-0.0173
aF-0.0181
aF-0.0186
aF-0.0175
aF-0.0181
aF-0.0192
aF-0.0188
aF-0.0197
aF-0.0191
aF-0.0179
aF-0.0188
aF-0.0184
aF-0.0184
aF-0.0199
aF-0.0206
aF-0.0179
aF-0.0183
aF-0.021
aF-0.0189
aF-0.0195
aF-0.0197
aF-0.0188
aF-0.0194
aF-0.0192
aF-0.0195
aF-0.0207
aF-0.0182
aF-0.0187
aF-0.0191
aF-0.0185
aF-0.021
aF-0.0204
aF-0.0206
aF-0.0193
aF-0.0193
aF-0.019
aF-0.0192
aF-0.0213
aF-0.0178
aF-0.0189
aF-0.0185
aF-0.019
aF-0.0192
aF-0.0197
aF-0.0189
aF-0.0196
aF-0.0188
aF-0.0185
aF-0.0184
aF-0.0197
aF-0.0181
aF-0.0185
aF-0.019
aF-0.0187
aF-0.0201
aF-0.0198
aF-0.0196
aF-0.0188
aF-0.02
aF-0.0198
aF-0.0205
aF-0.0205
aF-0.0189
aF-0.0197
aF-0.0189
aF-0.021
aF-0.02
aF-0.0193
aF-0.0202
aF-0.0196
aF-0.0195
aF-0.0193
aF-0.0183
aF-0.0201
aF-0.0194
aF-0.0188
aF-0.0188
aF-0.0197
aF-0.0205
aF-0.0204
aF-0.0194
aF-0.0189
aF-0.0186
aF-0.0188
aF-0.0204
aF-0.0209
aF-0.0188
aF-0.0208
aF-0.0194
aF-0.0191
aF-0.0202
aF-0.0204
aF-0.0192
aF-0.0197
aF-0.0185
aF-0.0176
aF-0.0212
aF-0.0207
aF-0.0199
aF-0.0188
aF-0.0192
aF-0.0205
aF-0.0198
aF-0.0197
aF-0.0189
aF-0.0207
aF-0.0192
aF-0.0194
aF-0.0196
aF-0.0192
aF-0.0194
aF-0.0185
aF-0.0194
aF-0.02
aF-0.0204
aF-0.0199
aF-0.0257
aF-0.0254
aF-0.0257
aF-0.0256
aF-0.0257
aF-0.0266
aF-0.0268
aF-0.0265
aF-0.0263
aF-0.0267
aF-0.0254
aF-0.0271
aF-0.0263
aF-0.0267
aF-0.026
aF-0.0252
aF-0.0272
aF-0.0257
aF-0.0263
aF-0.0268
aF-0.0266
aF-0.0259
aF-0.0275
aF-0.0276
aF-0.0256
aF-0.026
aF-0.0262
aF-0.0247
aF-0.027
aF-0.0262
aF-0.0273
aF-0.0259
aF-0.0255
aF-0.0255
aF-0.0262
aF-0.0261
aF-0.0259
aF-0.0258
aF-0.0254
aF-0.0244
aF-0.0245
aF-0.0262
aF-0.0268
aF-0.0251
aF-0.025
aF-0.026
aF-0.0256
aF-0.0257
aF-0.0263
aF-0.0259
aF-0.0258
aF-0.0251
aF-0.0251
aF-0.0258
aF-0.0256
aF-0.0254
aF-0.0254
aF-0.0266
aF-0.027
aF-0.0265
aF-0.0266
aF-0.0251
aF-0.0249
aF-0.0248
aF-0.0261
aF-0.0263
aF-0.026
aF-0.0252
aF-0.0252
aF-0.0266
aF-0.0246
aF-0.0266
aF-0.026
aF-0.0245
aF-0.0255
aF-0.025
aF-0.0239
aF-0.0263
aF-0.0268
aF-0.0249
aF-0.0256
aF-0.025
aF-0.0267
aF-0.0263
aF-0.0262
aF-0.0268
aF-0.0252
aF-0.0262
aF-0.0261
aF-0.0255
aF-0.0251
aF-0.0244
aF-0.025
aF-0.0269
aF-0.0263
aF-0.0262
aF-0.0262
aF-0.0254
aF-0.0258
aF-0.0255
aF-0.0242
aF-0.0269
aF-0.0254
aF-0.0256
aF-0.0262
aF-0.0254
aF-0.0268
aF-0.0261
aF-0.0252
aF-0.0254
aF-0.0251
aF-0.0249
aF-0.0253
aF-0.0263
aF-0.0255
aF-0.0256
aF-0.026
aF-0.0263
aF-0.0256
aF-0.0265
aF-0.0252
aF-0.025
aF-0.0248
aF-0.0257
aF-0.0245
aF-0.026
aF-0.0255
aF-0.0253
aF-0.0246
aF-0.0258
aF-0.0259
aF-0.0259
aF-0.0252
aF-0.0267
aF-0.0246
aF-0.0249
aF-0.0252
aF-0.0263
aF-0.0251
aF-0.0256
aF-0.0255
aF-0.0262
aF-0.026
aF-0.0263
aF-0.0252
aF-0.0277
aF-0.025
aF-0.0251
aF-0.0255
aF-0.0256
aF-0.0261
aF-0.0252
aF-0.0254
aF-0.0271
aF-0.0265
aF-0.0269
aF-0.026
aF-0.0259
aF-0.0245
aF-0.0255
aF-0.0252
aF-0.0258
aF-0.0252
aF-0.0255
aF-0.0257
aF-0.0258
aF-0.027
aF-0.0262
aF-0.0273
aF-0.0265
aF-0.0262
aF-0.0256
aF-0.0254
aF-0.0254
aF-0.0248
aF-0.0258
aF-0.026
aF-0.026
aF-0.0259
aF-0.0266
aF-0.0261
aF-0.0258
aF-0.0246
aF-0.0243
aF-0.0245
aF-0.0257
aF-0.026
aF-0.0254
aF-0.0241
aF-0.0255
aF-0.0276
aF-0.0277
aF-0.026
aF-0.0247
aF-0.0253
aF-0.0254
aF-0.0264
aF-0.0276
aF-0.0261
aF-0.0242
aF-0.0265
aF-0.0262
aF-0.0262
aF-0.0259
aF-0.0253
aF-0.0257
aF-0.0244
aF-0.0243
aF-0.0261
aF-0.0253
aF-0.0245
aF-0.0259
aF-0.027
aF-0.0255
aF-0.0254
aF-0.0265
aF-0.0262
aF-0.0251
aF-0.0262
aF-0.0254
aF-0.0263
aF-0.0271
aF-0.025
aF-0.0252
aF-0.0245
aF-0.0256
aF-0.0255
aF-0.026
aF-0.0262
aF-0.0254
aF-0.0243
aF-0.0249
aF-0.0245
aF-0.0253
aF-0.0258
aF-0.0251
aF-0.025
aF-0.0268
aF-0.0267
aF-0.025
aF-0.0261
aF-0.0262
aF-0.0251
aF-0.0258
aF-0.0239
aF-0.0254
aF-0.0248
aF-0.0265
aF-0.0254
aF-0.0249
aF-0.0246
aF-0.0261
aF-0.0253
aF-0.0253
aF-0.025
aF-0.0253
aF-0.0256
aF-0.0258
aF-0.0261
aF-0.0255
aF-0.0251
aF-0.0261
aF-0.0271
aF-0.0264
aF-0.0262
aF-0.0251
aF-0.0244
aF-0.0261
aF-0.0259
aF-0.0258
aF-0.0254
aF-0.0244
aF-0.0253
aF-0.026
aF-0.0261
aF-0.0266
aF-0.0258
aF-0.0251
aF-0.0254
aF-0.0241
aF-0.0255
aF-0.0255
aF-0.0252
aF-0.0248
aF-0.026
aF-0.0266
aF-0.0249
aF-0.0269
aF-0.025
aF-0.0255
aF-0.0246
aF-0.0245
aF-0.0258
aF-0.0261
aF-0.0243
aF-0.0248
aF-0.0246
aF-0.0249
aF-0.0271
aF-0.0262
aF-0.025
aF-0.0254
aF-0.0249
aF-0.0254
aF-0.0251
aF-0.026
aF-0.0269
aF-0.0243
aF-0.0249
aF-0.0259
aF-0.0251
aF-0.0251
aF-0.0258
aF-0.0248
aF-0.0246
aF-0.0253
aF-0.0252
aF-0.0262
aF-0.0258
aF-0.0263
aF-0.0246
aF-0.0271
aF-0.0262
aF-0.0265
aF-0.0265
aF-0.0261
aF-0.0248
aF-0.0242
aF-0.0245
aF-0.0255
aF-0.024
aF-0.0242
aF-0.0257
aF-0.0258
aF-0.0262
aF-0.0257
aF-0.0247
aF-0.0252
aF-0.025
aF-0.0246
aF-0.0266
aF-0.0259
aF-0.0254
aF-0.0237
aF-0.0259
aF-0.0253
aF-0.0258
aF-0.027
aF-0.0254
aF-0.0246
aF-0.025
aF-0.0253
aF-0.0254
aF-0.0253
aF-0.0256
aF-0.0247
aF-0.0256
aF-0.0267
aF-0.0252
aF-0.0265
asS'htune'
p39
(lp40
F25.399999547999997
aF25.32500069
asS'i'
p41
I2
sS'time'
p42
(lp43
F0.0008
aF0.0022
aF0.0036
aF0.005
aF0.0064
aF0.0077
aF0.0091
aF0.0105
aF0.0119
aF0.0133
aF0.0147
aF0.0161
aF0.0175
aF0.0189
aF0.0202
aF0.0216
aF0.023
aF0.0244
aF0.0258
aF0.0272
aF0.0286
aF0.03
aF0.0314
aF0.0328
aF0.0341
aF0.0355
aF0.0369
aF0.0383
aF0.0397
aF0.0411
aF0.0425
aF0.0439
aF0.0452
aF0.0466
aF0.048
aF0.0494
aF0.0508
aF0.0522
aF0.0536
aF0.055
aF0.0564
aF0.0578
aF0.0591
aF0.0605
aF0.0619
aF0.0633
aF0.0647
aF0.0661
aF0.0675
aF0.0689
aF0.0703
aF0.0716
aF0.073
aF0.0744
aF0.0758
aF0.0772
aF0.0786
aF0.08
aF0.0814
aF0.0828
aF0.0841
aF0.0855
aF0.0869
aF0.0883
aF0.0897
aF0.0911
aF0.0925
aF0.0939
aF0.0953
aF0.0966
aF0.098
aF0.0994
aF0.1008
aF0.1022
aF0.1036
aF0.105
aF0.1064
aF0.1078
aF0.1092
aF0.1105
aF0.1119
aF0.1133
aF0.1147
aF0.1161
aF0.1175
aF0.1189
aF0.1203
aF0.1217
aF0.123
aF0.1244
aF0.1258
aF0.12720001
aF0.1286
aF0.13
aF0.1314
aF0.1328
aF0.13420001
aF0.1355
aF0.13689999
aF0.1383
aF0.1397
aF0.1411
aF0.1425
aF0.14390001
aF0.1453
aF0.14669999
aF0.148
aF0.1494
aF0.1508
aF0.1522
aF0.15360001
aF0.155
aF0.1564
aF0.1578
aF0.1592
aF0.16060001
aF0.1619
aF0.16329999
aF0.1647
aF0.1661
aF0.1675
aF0.1689
aF0.17030001
aF0.1717
aF0.17299999
aF0.1744
aF0.1758
aF0.1772
aF0.1786
aF0.18000001
aF0.1814
aF0.18279999
aF0.1842
aF0.1856
aF0.1869
aF0.1883
aF0.18970001
aF0.1911
aF0.1925
aF0.1939
aF0.1953
aF0.19670001
aF0.1981
aF0.19939999
aF0.2008
aF0.2022
aF0.2036
aF0.205
aF0.20640001
aF0.2078
aF0.20919999
aF0.2106
aF0.2119
aF0.2133
aF0.2147
aF0.21610001
aF0.2175
aF0.2189
aF0.2203
aF0.2217
aF0.22310001
aF0.2245
aF0.22579999
aF0.2272
aF0.2286
aF0.23
aF0.2314
aF0.23280001
aF0.2342
aF0.23559999
aF0.237
aF0.2383
aF0.2397
aF0.2411
aF0.24250001
aF0.2439
aF0.24529999
aF0.2467
aF0.2481
aF0.24950001
aF0.25080001
aF0.25220001
aF0.2536
aF0.255
aF0.25639999
aF0.25780001
aF0.25920001
aF0.2606
aF0.26199999
aF0.2633
aF0.2647
aF0.26609999
aF0.26750001
aF0.26890001
aF0.2703
aF0.27169999
aF0.27309999
aF0.27450001
aF0.27579999
aF0.27720001
aF0.27860001
aF0.28
aF0.2814
aF0.28279999
aF0.28420001
aF0.28560001
aF0.287
aF0.28839999
aF0.2897
aF0.2911
aF0.29249999
aF0.29390001
aF0.29530001
aF0.2967
aF0.29809999
aF0.29949999
aF0.30090001
aF0.30219999
aF0.30360001
aF0.30500001
aF0.3064
aF0.30779999
aF0.30919999
aF0.31060001
aF0.31200001
aF0.3134
aF0.31470001
aF0.3161
aF0.3175
aF0.31889999
aF0.32030001
aF0.32170001
aF0.3231
aF0.32449999
aF0.32589999
aF0.3272
aF0.32859999
aF0.33000001
aF0.33140001
aF0.3328
aF0.33419999
aF0.33559999
aF0.33700001
aF0.33840001
aF0.3398
aF0.34110001
aF0.3425
aF0.3439
aF0.34529999
aF0.34670001
aF0.34810001
aF0.3495
aF0.35089999
aF0.3522
aF0.3536
aF0.35499999
aF0.35640001
aF0.35780001
aF0.3592
aF0.36059999
aF0.36199999
aF0.36340001
aF0.36480001
aF0.36610001
aF0.36750001
aF0.3689
aF0.37029999
aF0.37169999
aF0.37310001
aF0.37450001
aF0.3759
aF0.37729999
aF0.3786
aF0.38
aF0.38139999
aF0.38280001
aF0.38420001
aF0.3856
aF0.38699999
aF0.38839999
aF0.38980001
aF0.39109999
aF0.39250001
aF0.39390001
aF0.3953
aF0.39669999
aF0.39809999
aF0.39950001
aF0.40090001
aF0.4023
aF0.40360001
aF0.405
aF0.4064
aF0.40779999
aF0.40920001
aF0.41060001
aF0.412
aF0.41339999
aF0.41479999
aF0.41620001
aF0.41749999
aF0.41890001
aF0.42030001
aF0.4217
aF0.42309999
aF0.42449999
aF0.42590001
aF0.42730001
aF0.4287
aF0.43000001
aF0.4314
aF0.43279999
aF0.43419999
aF0.43560001
aF0.43700001
aF0.4384
aF0.43979999
aF0.44119999
aF0.4425
aF0.44389999
aF0.44530001
aF0.44670001
aF0.4481
aF0.44949999
aF0.45089999
aF0.45230001
aF0.45370001
aF0.45500001
aF0.45640001
aF0.4578
aF0.45919999
aF0.46059999
aF0.46200001
aF0.46340001
aF0.4648
aF0.46619999
aF0.46759999
aF0.4689
aF0.47029999
aF0.47170001
aF0.47310001
aF0.4745
aF0.47589999
aF0.47729999
aF0.47870001
aF0.48010001
aF0.48140001
aF0.48280001
aF0.4842
aF0.48559999
aF0.48699999
aF0.48840001
aF0.48980001
aF0.4912
aF0.49259999
aF0.4939
aF0.49529999
aF0.49669999
aF0.49810001
aF0.49950001
aF0.50089997
aF0.50230002
aF0.50370002
aF0.50510001
aF0.50639999
aF0.50779998
aF0.50919998
aF0.51059997
aF0.51200002
aF0.51340002
aF0.51480001
aF0.51620001
aF0.5176
aF0.51889998
aF0.52029997
aF0.52170002
aF0.52310002
aF0.52450001
aF0.52590001
aF0.5273
aF0.52869999
aF0.53009999
aF0.53149998
aF0.53280002
aF0.53420001
aF0.53560001
aF0.537
aF0.53839999
aF0.53979999
aF0.54119998
aF0.54259998
aF0.54400003
aF0.54530001
aF0.5467
aF0.54809999
aF0.54949999
aF0.55089998
aF0.55229998
aF0.55369997
aF0.55510002
aF0.55650002
aF0.55779999
aF0.55919999
aF0.56059998
aF0.56199998
aF0.56339997
aF0.56480002
aF0.56620002
aF0.56760001
aF0.56900001
aF0.57029998
aF0.57169998
aF0.57309997
aF0.57450002
aF0.57590002
aF0.57730001
aF0.57870001
aF0.5801
aF0.58149999
aF0.58279997
aF0.58420002
aF0.58560002
aF0.58700001
aF0.58840001
aF0.5898
aF0.59119999
aF0.59259999
aF0.59399998
aF0.59539998
aF0.59670001
aF0.59810001
aF0.5995
aF0.60089999
aF0.60229999
aF0.60369998
aF0.60509998
aF0.60650003
aF0.60790002
aF0.6092
aF0.61059999
aF0.61199999
aF0.61339998
aF0.61479998
aF0.61619997
aF0.61760002
aF0.61900002
aF0.62040001
aF0.62169999
aF0.62309998
aF0.62449998
aF0.62589997
aF0.62730002
aF0.62870002
aF0.63010001
aF0.63150001
aF0.6329
aF0.63419998
aF0.63559997
aF0.63700002
aF0.63840002
aF0.63980001
aF0.64120001
aF0.6426
aF0.64399999
aF0.64539999
aF0.64670002
aF0.64810002
aF0.64950001
aF0.65090001
aF0.6523
aF0.65369999
aF0.65509999
aF0.65649998
aF0.65789998
aF0.65920001
aF0.66060001
aF0.662
aF0.66339999
aF0.66479999
aF0.66619998
aF0.66759998
aF0.66900003
aF0.67040002
aF0.67180002
aF0.67309999
aF0.67449999
aF0.67589998
aF0.67729998
aF0.67869997
aF0.68010002
aF0.68150002
aF0.68290001
aF0.68430001
aF0.68559998
aF0.68699998
aF0.68839997
aF0.68980002
aF0.69120002
aF0.69260001
aF0.69400001
aF0.6954
aF0.69679999
aF0.69809997
aF0.69950002
aF0.70090002
aF0.70230001
aF0.70370001
aF0.7051
aF0.70649999
aF0.70789999
aF0.70929998
aF0.71060002
aF0.71200001
aF0.71340001
aF0.7148
aF0.71619999
aF0.71759999
aF0.71899998
aF0.72039998
aF0.72180003
aF0.72320002
aF0.7245
aF0.72589999
aF0.72729999
aF0.72869998
aF0.73009998
aF0.73150003
aF0.73290002
aF0.73430002
aF0.73570001
aF0.73699999
aF0.73839998
aF0.73979998
aF0.74119997
aF0.74260002
aF0.74400002
aF0.74540001
aF0.74680001
aF0.7482
aF0.74949998
aF0.75089997
aF0.75230002
aF0.75370002
aF0.75510001
aF0.75650001
aF0.7579
aF0.75929999
aF0.76069999
aF0.76209998
aF0.76340002
aF0.76480001
aF0.76620001
aF0.7676
aF0.76899999
aF0.77039999
aF0.77179998
aF0.77319998
aF0.77450001
aF0.77590001
aF0.7773
aF0.77869999
aF0.78009999
aF0.78149998
aF0.78289998
aF0.78430003
aF0.78570002
aF0.78710002
aF0.78839999
aF0.78979999
aF0.79119998
aF0.79259998
aF0.79400003
aF0.79540002
aF0.79680002
aF0.79820001
aF0.79960001
aF0.80089998
aF0.80229998
aF0.80369997
aF0.80510002
aF0.80650002
aF0.80790001
aF0.80930001
aF0.8107
aF0.81209999
aF0.81339997
aF0.81480002
aF0.81620002
aF0.81760001
aF0.81900001
aF0.8204
aF0.82179999
aF0.82319999
aF0.82459998
aF0.82590002
aF0.82730001
aF0.82870001
aF0.8301
aF0.83149999
aF0.83289999
aF0.83429998
aF0.83569998
aF0.83710003
aF0.83840001
aF0.8398
aF0.84119999
aF0.84259999
aF0.84399998
aF0.84539998
aF0.84680003
aF0.84820002
aF0.84960002
aF0.85100001
aF0.85229999
aF0.85369998
aF0.85509998
aF0.85650003
aF0.85790002
aF0.85930002
aF0.86070001
aF0.86210001
aF0.8635
aF0.86479998
aF0.86619997
aF0.86760002
aF0.86900002
aF0.87040001
aF0.87180001
aF0.8732
aF0.87459999
aF0.87599999
aF0.87730002
aF0.87870002
aF0.88010001
aF0.88150001
aF0.8829
aF0.88429999
aF0.88569999
aF0.88709998
aF0.88849998
aF0.88980001
aF0.89120001
aF0.8926
aF0.89399999
aF0.89539999
aF0.89679998
aF0.89819998
aF0.89960003
aF0.90100002
aF0.90240002
aF0.90369999
aF0.90509999
aF0.90649998
aF0.90789998
aF0.90930003
aF0.91070002
aF0.91210002
aF0.91350001
aF0.91479999
aF0.91619998
aF0.91759998
aF0.91900003
aF0.92040002
aF0.92180002
aF0.92320001
aF0.92460001
aF0.926
aF0.92739999
aF0.92869997
aF0.93010002
aF0.93150002
aF0.93290001
aF0.93430001
aF0.9357
aF0.93709999
aF0.93849999
aF0.93989998
aF0.94120002
aF0.94260001
aF0.94400001
aF0.9454
aF0.94679999
aF0.94819999
aF0.94959998
aF0.95099998
aF0.95240003
aF0.95370001
aF0.9551
aF0.95649999
aF0.95789999
aF0.95929998
aF0.96069998
aF0.96210003
aF0.96350002
aF0.96490002
aF0.96619999
aF0.96759999
aF0.96899998
aF0.97039998
aF0.97180003
aF0.97320002
aF0.97460002
aF0.97600001
aF0.9774
aF0.9788
aF0.98009998
aF0.98150003
aF0.98290002
aF0.98430002
aF0.98570001
aF0.98710001
aF0.9885
aF0.98989999
aF0.99129999
aF0.99260002
aF0.99400002
aF0.99540001
aF0.99680001
aF0.9982
aF0.99959999
aF1.001
aF1.0024
aF1.0038
aF1.0051
aF1.0065
aF1.0079
aF1.0093
aF1.0107
aF1.0121
aF1.0135
aF1.0149
aF1.0163
aF1.0177
aF1.0190001
aF1.0204
aF1.0218
aF1.0232
aF1.0246
aF1.026
aF1.0274
aF1.0288
aF1.0302
aF1.0315
aF1.0329
aF1.0343
aF1.0357
aF1.0371
aF1.0385
aF1.0398999
aF1.0413001
aF1.0427001
aF1.044
aF1.0454
aF1.0468
aF1.0482
aF1.0496
aF1.051
aF1.0524
aF1.0538
aF1.0552
aF1.0565
aF1.0579
aF1.0592999
aF1.0607001
aF1.0621001
aF1.0635
aF1.0649
aF1.0663
aF1.0677
aF1.069
aF1.0704
aF1.0718
aF1.0732
aF1.0746
aF1.076
aF1.0774
aF1.0788
aF1.0802
aF1.0815001
aF1.0829
aF1.0843
aF1.0857
aF1.0871
aF1.0885
aF1.0899
aF1.0913
aF1.0927
aF1.094
aF1.0954
aF1.0968
aF1.0982
aF1.0996
aF1.101
aF1.1023999
aF1.1038001
aF1.1052001
aF1.1066
aF1.1079
aF1.1093
aF1.1107
aF1.1121
aF1.1135
aF1.1149
aF1.1163
aF1.1177
aF1.1191
aF1.1204
aF1.1217999
aF1.1232001
aF1.1246001
aF1.126
aF1.1274
aF1.1288
aF1.1302
aF1.1316
aF1.1329
aF1.1343
aF1.1357
aF1.1371
aF1.1385
aF1.1399
aF1.1413
aF1.1427
aF1.1441
aF1.1454999
aF1.1468
aF1.1482
aF1.1496
aF1.151
aF1.1524
aF1.1538
aF1.1552
aF1.1566
aF1.158
aF1.1593
aF1.1607
aF1.1621
aF1.1635
aF1.1648999
aF1.1663001
aF1.1677001
aF1.1691
aF1.1705
aF1.1718
aF1.1732
aF1.1746
aF1.176
aF1.1774
aF1.1788
aF1.1802
aF1.1816
aF1.183
aF1.1842999
aF1.1857001
aF1.1871001
aF1.1885
aF1.1899
aF1.1913
aF1.1927
aF1.1941
aF1.1955
aF1.1968
aF1.1982
aF1.1996
aF1.201
aF1.2024
aF1.2038
aF1.2052
aF1.2066
aF1.2079999
aF1.2094001
aF1.2107
aF1.2121
aF1.2135
aF1.2149
aF1.2163
aF1.2177
aF1.2191
aF1.2205
aF1.2219
aF1.2232
aF1.2246
aF1.226
aF1.2273999
aF1.2288001
aF1.2302001
aF1.2316
aF1.233
aF1.2344
aF1.2357
aF1.2371
aF1.2385
aF1.2399
aF1.2413
aF1.2427
aF1.2441
aF1.2455
aF1.2469
aF1.2482001
aF1.2496001
aF1.251
aF1.2524
aF1.2538
aF1.2552
aF1.2566
aF1.258
aF1.2594
aF1.2607
aF1.2621
aF1.2635
aF1.2649
aF1.2663
aF1.2677
aF1.2691
aF1.2704999
aF1.2719001
aF1.2733001
aF1.2746
aF1.276
aF1.2774
aF1.2788
aF1.2802
aF1.2816
aF1.283
aF1.2844
aF1.2858
aF1.2871
aF1.2885
aF1.2898999
aF1.2913001
aF1.2927001
aF1.2941
aF1.2955
aF1.2969
aF1.2983
aF1.2996
ass.